(dp0
S'matches'
p1
(lp2
ccopy_reg
_reconstructor
p3
(c__main__
Match
p4
c__builtin__
tuple
p5
(VZodiac
p6
VZealous
p7
VPrinceton Weekly 1
p8
tp9
tp10
Rp11
ag3
(g4
g5
(VEmanon
p12
VJustin Wong
p13
g8
tp14
tp15
Rp16
ag3
(g4
g5
(VTheftz
p17
VVenz
p18
g8
tp19
tp20
Rp21
ag3
(g4
g5
(VKosa
p22
VKevin Liu
p23
g8
tp24
tp25
Rp26
ag3
(g4
g5
(VNation
p27
VSomar
p28
g8
tp29
tp30
Rp31
ag3
(g4
g5
(VEnV
p32
VJack
p33
g8
tp34
tp35
Rp36
ag3
(g4
g5
(VKmac
p37
VThatPrincetonWeekliesGuy
p38
g8
tp39
tp40
Rp41
ag3
(g4
g5
(VPyro
p42
VBigFoig
p43
g8
tp44
tp45
Rp46
ag3
(g4
g5
(VNJzFinest
p47
VScrandino
p48
g8
tp49
tp50
Rp51
ag3
(g4
g5
(VYTG
p52
VJahn
p53
g8
tp54
tp55
Rp56
ag3
(g4
g5
(Vmkolpnji
p57
VColonel
p58
g8
tp59
tp60
Rp61
ag3
(g4
g5
(VDestructicon
p62
VADVANCED
p63
g8
tp64
tp65
Rp66
ag3
(g4
g5
(VSon2
p67
V8
p68
g8
tp69
tp70
Rp71
ag3
(g4
g5
(VC!Z
p72
VZodiac
p73
g8
tp74
tp75
Rp76
ag3
(g4
g5
(g17
VEmanon
p77
g8
tp78
tp79
Rp80
ag3
(g4
g5
(g27
g22
g8
tp81
tp82
Rp83
ag3
(g4
g5
(g32
VKmac
p84
g8
tp85
tp86
Rp87
ag3
(g4
g5
(VIcer
p88
VPyro
p89
g8
tp90
tp91
Rp92
ag3
(g4
g5
(VNJzFinest
p93
g52
g8
tp94
tp95
Rp96
ag3
(g4
g5
(VOverflow
p97
g57
g8
tp98
tp99
Rp100
ag3
(g4
g5
(VSon2
p101
VDestructicon
p102
g8
tp103
tp104
Rp105
ag3
(g4
g5
(g72
g17
g8
tp106
tp107
Rp108
ag3
(g4
g5
(g32
g27
g8
tp109
tp110
Rp111
ag3
(g4
g5
(g88
VNJzFinest
p112
g8
tp113
tp114
Rp115
ag3
(g4
g5
(g97
VSon2
p116
g8
tp117
tp118
Rp119
ag3
(g4
g5
(g72
g32
g8
tp120
tp121
Rp122
ag3
(g4
g5
(g88
g97
g8
tp123
tp124
Rp125
ag3
(g4
g5
(g72
g88
g8
tp126
tp127
Rp128
ag3
(g4
g5
(g72
VSon2
p129
g8
tp130
tp131
Rp132
ag3
(g4
g5
(VJustin Wong
p133
VVenz
p134
g8
tp135
tp136
Rp137
ag3
(g4
g5
(VSomar
p138
VKevin Liu
p139
g8
tp140
tp141
Rp142
ag3
(g4
g5
(VThatPrincetonWeekliesGuy
p143
VJack
p144
g8
tp145
tp146
Rp147
ag3
(g4
g5
(VJahn
p148
VScrandino
p149
g8
tp150
tp151
Rp152
ag3
(g4
g5
(g63
V8
p153
g8
tp154
tp155
Rp156
ag3
(g4
g5
(VDestructicon
p157
g7
g8
tp158
tp159
Rp160
ag3
(g4
g5
(g57
VJustin Wong
p161
g8
tp162
tp163
Rp164
ag3
(g4
g5
(g52
VSomar
p165
g8
tp166
tp167
Rp168
ag3
(g4
g5
(VPyro
p169
VThatPrincetonWeekliesGuy
p170
g8
tp171
tp172
Rp173
ag3
(g4
g5
(VKmac
p174
g43
g8
tp175
tp176
Rp177
ag3
(g4
g5
(g22
VJahn
p178
g8
tp179
tp180
Rp181
ag3
(g4
g5
(VEmanon
p182
VColonel
p183
g8
tp184
tp185
Rp186
ag3
(g4
g5
(VZodiac
p187
g63
g8
tp188
tp189
Rp190
ag3
(g4
g5
(VDestructicon
p191
g57
g8
tp192
tp193
Rp194
ag3
(g4
g5
(VPyro
p195
g52
g8
tp196
tp197
Rp198
ag3
(g4
g5
(VKmac
p199
g22
g8
tp200
tp201
Rp202
ag3
(g4
g5
(VZodiac
p203
VEmanon
p204
g8
tp205
tp206
Rp207
ag3
(g4
g5
(VDestructicon
p208
g27
g8
tp209
tp210
Rp211
ag3
(g4
g5
(VPyro
p212
g17
g8
tp213
tp214
Rp215
ag3
(g4
g5
(VSon2
p216
VKmac
p217
g8
tp218
tp219
Rp220
ag3
(g4
g5
(VNJzFinest
p221
VZodiac
p222
g8
tp223
tp224
Rp225
ag3
(g4
g5
(VDestructicon
p226
VPyro
p227
g8
tp228
tp229
Rp230
ag3
(g4
g5
(VSon2
p231
VNJzFinest
p232
g8
tp233
tp234
Rp235
ag3
(g4
g5
(g97
VDestructicon
p236
g8
tp237
tp238
Rp239
ag3
(g4
g5
(VSon2
p240
g32
g8
tp241
tp242
Rp243
ag3
(g4
g5
(VSon2
p244
g97
g8
tp245
tp246
Rp247
ag3
(g4
g5
(VSon2
p248
g88
g8
tp249
tp250
Rp251
ag3
(g4
g5
(VJake From State Farm
p252
VWatson
p253
VPrinceton Weekly 2
p254
tp255
tp256
Rp257
ag3
(g4
g5
(g43
VCF
p258
g254
tp259
tp260
Rp261
ag3
(g4
g5
(g52
V8
p262
g254
tp263
tp264
Rp265
ag3
(g4
g5
(VKofi
p266
g27
g254
tp267
tp268
Rp269
ag3
(g4
g5
(VJavier
p270
g7
g254
tp271
tp272
Rp273
ag3
(g4
g5
(VArias
p274
VI like rice
p275
g254
tp276
tp277
Rp278
ag3
(g4
g5
(g17
VLink?
p279
g254
tp280
tp281
Rp282
ag3
(g4
g5
(VTweek
p283
VN2XX I Prison Mike
p284
g254
tp285
tp286
Rp287
ag3
(g4
g5
(VEmanon
p288
VOPC
p289
g254
tp290
tp291
Rp292
ag3
(g4
g5
(g22
VDesai
p293
g254
tp294
tp295
Rp296
ag3
(g4
g5
(g57
VFranjoe
p297
g254
tp298
tp299
Rp300
ag3
(g4
g5
(g88
g252
g254
tp301
tp302
Rp303
ag3
(g4
g5
(g43
g52
g254
tp304
tp305
Rp306
ag3
(g4
g5
(VNJzFinest
p307
VKofi
p308
g254
tp309
tp310
Rp311
ag3
(g4
g5
(VDaybreak
p312
VJavier
p313
g254
tp314
tp315
Rp316
ag3
(g4
g5
(VSmelly Cat
p317
VArias
p318
g254
tp319
tp320
Rp321
ag3
(g4
g5
(g17
VTweek
p322
g254
tp323
tp324
Rp325
ag3
(g4
g5
(VEmanon
p326
g97
g254
tp327
tp328
Rp329
ag3
(g4
g5
(g22
g57
g254
tp330
tp331
Rp332
ag3
(g4
g5
(g88
g43
g254
tp333
tp334
Rp335
ag3
(g4
g5
(VNJzFinest
p336
VDaybreak
p337
g254
tp338
tp339
Rp340
ag3
(g4
g5
(g317
g17
g254
tp341
tp342
Rp343
ag3
(g4
g5
(VEmanon
p344
g22
g254
tp345
tp346
Rp347
ag3
(g4
g5
(g88
VNJzFinest
p348
g254
tp349
tp350
Rp351
ag3
(g4
g5
(g317
VEmanon
p352
g254
tp353
tp354
Rp355
ag3
(g4
g5
(g88
g317
g254
tp356
tp357
Rp358
ag3
(g4
g5
(g88
g317
g254
tp359
tp360
Rp361
ag3
(g4
g5
(VCF
p362
V8
p363
g254
tp364
tp365
Rp366
ag3
(g4
g5
(VN2XX I Prison Mike
p367
VLink?
p368
g254
tp369
tp370
Rp371
ag3
(g4
g5
(VFranjoe
p372
VDesai
p373
g254
tp374
tp375
Rp376
ag3
(g4
g5
(g57
VWatson
p377
g254
tp378
tp379
Rp380
ag3
(g4
g5
(g97
VCF
p381
g254
tp382
tp383
Rp384
ag3
(g4
g5
(VTweek
p385
g27
g254
tp386
tp387
Rp388
ag3
(g4
g5
(g7
VArias
p389
g254
tp390
tp391
Rp392
ag3
(g4
g5
(VJavier
p393
VI like rice
p394
g254
tp395
tp396
Rp397
ag3
(g4
g5
(VKofi
p398
VN2XX I Prison Mike
p399
g254
tp400
tp401
Rp402
ag3
(g4
g5
(g52
VOPC
p403
g254
tp404
tp405
Rp406
ag3
(g4
g5
(g252
VFranjoe
p407
g254
tp408
tp409
Rp410
ag3
(g4
g5
(g97
g57
g254
tp411
tp412
Rp413
ag3
(g4
g5
(VTweek
p414
g7
g254
tp415
tp416
Rp417
ag3
(g4
g5
(VJavier
p418
VKofi
p419
g254
tp420
tp421
Rp422
ag3
(g4
g5
(g52
g252
g254
tp423
tp424
Rp425
ag3
(g4
g5
(VDaybreak
p426
g97
g254
tp427
tp428
Rp429
ag3
(g4
g5
(VTweek
p430
g43
g254
tp431
tp432
Rp433
ag3
(g4
g5
(VJavier
p434
g22
g254
tp435
tp436
Rp437
ag3
(g4
g5
(g17
g52
g254
tp438
tp439
Rp440
ag3
(g4
g5
(VTweek
p441
VDaybreak
p442
g254
tp443
tp444
Rp445
ag3
(g4
g5
(VJavier
p446
g17
g254
tp447
tp448
Rp449
ag3
(g4
g5
(VEmanon
p450
VTweek
p451
g254
tp452
tp453
Rp454
ag3
(g4
g5
(VNJzFinest
p455
VJavier
p456
g254
tp457
tp458
Rp459
ag3
(g4
g5
(VNJzFinest
p460
VEmanon
p461
g254
tp462
tp463
Rp464
ag3
(g4
g5
(g317
VNJzFinest
p465
g254
tp466
tp467
Rp468
ag3
(g4
g5
(VCF
p469
g57
VPrinceton Weekly 3
p470
tp471
tp472
Rp473
ag3
(g4
g5
(g97
VScott
p474
g470
tp475
tp476
Rp477
ag3
(g4
g5
(VTweek
p478
VMars
p479
g470
tp480
tp481
Rp482
ag3
(g4
g5
(VMGFC I Dekunut
p483
VDougie Fresh
p484
g470
tp485
tp486
Rp487
ag3
(g4
g5
(g63
VBlank Dots
p488
g470
tp489
tp490
Rp491
ag3
(g4
g5
(g32
VBDukes
p492
g470
tp493
tp494
Rp495
ag3
(g4
g5
(g22
VMechaPikachu
p496
g470
tp497
tp498
Rp499
ag3
(g4
g5
(VKofi
p500
VOPC
p501
g470
tp502
tp503
Rp504
ag3
(g4
g5
(VDaybreak
p505
VFable
p506
g470
tp507
tp508
Rp509
ag3
(g4
g5
(VCall Me Mars
p510
VAzy
p511
g470
tp512
tp513
Rp514
ag3
(g4
g5
(g7
VMr. Clean
p515
g470
tp516
tp517
Rp518
ag3
(g4
g5
(VNJzFinest
p519
VImmersion
p520
g470
tp521
tp522
Rp523
ag3
(g4
g5
(g52
VPeanutphobia
p524
g470
tp525
tp526
Rp527
ag3
(g4
g5
(g72
VCF
p528
g470
tp529
tp530
Rp531
ag3
(g4
g5
(VTweek
p532
g97
g470
tp533
tp534
Rp535
ag3
(g4
g5
(VMGFC I Dekunut
p536
g63
g470
tp537
tp538
Rp539
ag3
(g4
g5
(g32
g22
g470
tp540
tp541
Rp542
ag3
(g4
g5
(g88
VKofi
p543
g470
tp544
tp545
Rp546
ag3
(g4
g5
(VDaybreak
p547
g510
g470
tp548
tp549
Rp550
ag3
(g4
g5
(VTS I Lord Knight
p551
g7
g470
tp552
tp553
Rp554
ag3
(g4
g5
(VNJzFinest
p555
g52
g470
tp556
tp557
Rp558
ag3
(g4
g5
(g72
VTweek
p559
g470
tp560
tp561
Rp562
ag3
(g4
g5
(VMGFC I Dekunut
p563
g32
g470
tp564
tp565
Rp566
ag3
(g4
g5
(VDaybreak
p567
g88
g470
tp568
tp569
Rp570
ag3
(g4
g5
(VTS I Lord Knight
p571
VNJzFinest
p572
g470
tp573
tp574
Rp575
ag3
(g4
g5
(g72
VMGFC I Dekunut
p576
g470
tp577
tp578
Rp579
ag3
(g4
g5
(VDaybreak
p580
VTS I Lord Knight
p581
g470
tp582
tp583
Rp584
ag3
(g4
g5
(g72
VDaybreak
p585
g470
tp586
tp587
Rp588
ag3
(g4
g5
(g72
g88
g470
tp589
tp590
Rp591
ag3
(g4
g5
(VMars
p592
VScott
p593
g470
tp594
tp595
Rp596
ag3
(g4
g5
(VBlank Dots
p597
VDougie Fresh
p598
g470
tp599
tp600
Rp601
ag3
(g4
g5
(VMechaPikachu
p602
VBDukes
p603
g470
tp604
tp605
Rp606
ag3
(g4
g5
(VAzy
p607
VFable
p608
g470
tp609
tp610
Rp611
ag3
(g4
g5
(VPeanutphobia
p612
VImmersion
p613
g470
tp614
tp615
Rp616
ag3
(g4
g5
(g52
g57
g470
tp617
tp618
Rp619
ag3
(g4
g5
(g7
VMars
p620
g470
tp621
tp622
Rp623
ag3
(g4
g5
(g510
VBlank Dots
p624
g470
tp625
tp626
Rp627
ag3
(g4
g5
(VKofi
p628
VMechaPikachu
p629
g470
tp630
tp631
Rp632
ag3
(g4
g5
(g22
VOPC
p633
g470
tp634
tp635
Rp636
ag3
(g4
g5
(VAzy
p637
g63
g470
tp638
tp639
Rp640
ag3
(g4
g5
(g97
VMr. Clean
p641
g470
tp642
tp643
Rp644
ag3
(g4
g5
(VPeanutphobia
p645
VCF
p646
g470
tp647
tp648
Rp649
ag3
(g4
g5
(g7
g52
g470
tp650
tp651
Rp652
ag3
(g4
g5
(g510
VKofi
p653
g470
tp654
tp655
Rp656
ag3
(g4
g5
(g22
VAzy
p657
g470
tp658
tp659
Rp660
ag3
(g4
g5
(g97
VPeanutphobia
p661
g470
tp662
tp663
Rp664
ag3
(g4
g5
(g32
g7
g470
tp665
tp666
Rp667
ag3
(g4
g5
(g510
VTweek
p668
g470
tp669
tp670
Rp671
ag3
(g4
g5
(VNJzFinest
p672
g22
g470
tp673
tp674
Rp675
ag3
(g4
g5
(g88
g97
g470
tp676
tp677
Rp678
ag3
(g4
g5
(g32
g510
g470
tp679
tp680
Rp681
ag3
(g4
g5
(g88
VNJzFinest
p682
g470
tp683
tp684
Rp685
ag3
(g4
g5
(g32
VTS I Lord Knight
p686
g470
tp687
tp688
Rp689
ag3
(g4
g5
(g88
VMGFC I Dekunut
p690
g470
tp691
tp692
Rp693
ag3
(g4
g5
(g88
g32
g470
tp694
tp695
Rp696
ag3
(g4
g5
(g88
VDaybreak
p697
g470
tp698
tp699
Rp700
ag3
(g4
g5
(g57
VMr. Clean
p701
VPrinceton Weekly 4
p702
tp703
tp704
Rp705
ag3
(g4
g5
(g17
VWatson
p706
g702
tp707
tp708
Rp709
ag3
(g4
g5
(VTweek
p710
VGun
p711
g702
tp712
tp713
Rp714
ag3
(g4
g5
(VFlip
p715
VEazy DI
p716
g702
tp717
tp718
Rp719
ag3
(g4
g5
(VZodiac
p720
VDan
p721
g702
tp722
tp723
Rp724
ag3
(g4
g5
(VEmanon
p725
VTeam
p726
g702
tp727
tp728
Rp729
ag3
(g4
g5
(g97
VUltimateRaven
p730
g702
tp731
tp732
Rp733
ag3
(g4
g5
(g510
VFable
p734
g702
tp735
tp736
Rp737
ag3
(g4
g5
(VCF
p738
g63
g702
tp739
tp740
Rp741
ag3
(g4
g5
(VDudeacockus
p742
VScrandino
p743
g702
tp744
tp745
Rp746
ag3
(g4
g5
(g22
g252
g702
tp747
tp748
Rp749
ag3
(g4
g5
(g88
g57
g702
tp750
tp751
Rp752
ag3
(g4
g5
(VTweek
p753
g17
g702
tp754
tp755
Rp756
ag3
(g4
g5
(VDaybreak
p757
VFlip
p758
g702
tp759
tp760
Rp761
ag3
(g4
g5
(g32
VZodiac
p762
g702
tp763
tp764
Rp765
ag3
(g4
g5
(g317
VEmanon
p766
g702
tp767
tp768
Rp769
ag3
(g4
g5
(g97
g510
g702
tp770
tp771
Rp772
ag3
(g4
g5
(VAlex The God
p773
VCF
p774
g702
tp775
tp776
Rp777
ag3
(g4
g5
(VDudeacockus
p778
g22
g702
tp779
tp780
Rp781
ag3
(g4
g5
(g88
VTweek
p782
g702
tp783
tp784
Rp785
ag3
(g4
g5
(VDaybreak
p786
g32
g702
tp787
tp788
Rp789
ag3
(g4
g5
(g317
g97
g702
tp790
tp791
Rp792
ag3
(g4
g5
(VAlex The God
p793
VDudeacockus
p794
g702
tp795
tp796
Rp797
ag3
(g4
g5
(g88
VDaybreak
p798
g702
tp799
tp800
Rp801
ag3
(g4
g5
(VAlex The God
p802
g317
g702
tp803
tp804
Rp805
ag3
(g4
g5
(g88
VAlex The God
p806
g702
tp807
tp808
Rp809
ag3
(g4
g5
(g88
VAlex The God
p810
g702
tp811
tp812
Rp813
ag3
(g4
g5
(VGun
p814
VWatson
p815
g702
tp816
tp817
Rp818
ag3
(g4
g5
(VFable
p819
VUltimateRaven
p820
g702
tp821
tp822
Rp823
ag3
(g4
g5
(g252
VScrandino
p824
g702
tp825
tp826
Rp827
ag3
(g4
g5
(g22
VMr. Clean
p828
g702
tp829
tp830
Rp831
ag3
(g4
g5
(VCF
p832
VGun
p833
g702
tp834
tp835
Rp836
ag3
(g4
g5
(g510
VEazy DI
p837
g702
tp838
tp839
Rp840
ag3
(g4
g5
(VEmanon
p841
VDan
p842
g702
tp843
tp844
Rp845
ag3
(g4
g5
(VZodiac
p846
VTeam
p847
g702
tp848
tp849
Rp850
ag3
(g4
g5
(VFable
p851
VFlip
p852
g702
tp853
tp854
Rp855
ag3
(g4
g5
(g17
g63
g702
tp856
tp857
Rp858
ag3
(g4
g5
(g57
g252
g702
tp859
tp860
Rp861
ag3
(g4
g5
(g22
VCF
p862
g702
tp863
tp864
Rp865
ag3
(g4
g5
(VEmanon
p866
g510
g702
tp867
tp868
Rp869
ag3
(g4
g5
(VZodiac
p870
VFable
p871
g702
tp872
tp873
Rp874
ag3
(g4
g5
(g57
g17
g702
tp875
tp876
Rp877
ag3
(g4
g5
(g32
g22
g702
tp878
tp879
Rp880
ag3
(g4
g5
(VEmanon
p881
VTweek
p882
g702
tp883
tp884
Rp885
ag3
(g4
g5
(VZodiac
p886
VDudeacockus
p887
g702
tp888
tp889
Rp890
ag3
(g4
g5
(g97
g57
g702
tp891
tp892
Rp893
ag3
(g4
g5
(g32
VEmanon
p894
g702
tp895
tp896
Rp897
ag3
(g4
g5
(g97
VZodiac
p898
g702
tp899
tp900
Rp901
ag3
(g4
g5
(g317
g32
g702
tp902
tp903
Rp904
ag3
(g4
g5
(VDaybreak
p905
g97
g702
tp906
tp907
Rp908
ag3
(g4
g5
(VDaybreak
p909
g317
g702
tp910
tp911
Rp912
ag3
(g4
g5
(VAlex The God
p913
VDaybreak
p914
g702
tp915
tp916
Rp917
ag3
(g4
g5
(VHimes
p918
g252
VPrinceton Weekly 5
p919
tp920
tp921
Rp922
ag3
(g4
g5
(VTweek
p923
VCypher
p924
g919
tp925
tp926
Rp927
ag3
(g4
g5
(g17
VYCJ
p928
g919
tp929
tp930
Rp931
ag3
(g4
g5
(g43
VFable
p932
g919
tp933
tp934
Rp935
ag3
(g4
g5
(g52
g27
g919
tp936
tp937
Rp938
ag3
(g4
g5
(VLink?
p939
VTongue
p940
g919
tp941
tp942
Rp943
ag3
(g4
g5
(g22
VScott
p944
g919
tp945
tp946
Rp947
ag3
(g4
g5
(VTalrane
p948
VWatson
p949
g919
tp950
tp951
Rp952
ag3
(g4
g5
(VPCwiz
p953
Vchris
p954
g919
tp955
tp956
Rp957
ag3
(g4
g5
(g72
VHimes
p958
g919
tp959
tp960
Rp961
ag3
(g4
g5
(VTweek
p962
g17
g919
tp963
tp964
Rp965
ag3
(g4
g5
(g43
g317
g919
tp966
tp967
Rp968
ag3
(g4
g5
(VNJzFinest
p969
g52
g919
tp970
tp971
Rp972
ag3
(g4
g5
(g32
VLink?
p973
g919
tp974
tp975
Rp976
ag3
(g4
g5
(g510
g22
g919
tp977
tp978
Rp979
ag3
(g4
g5
(VGreen Lantern
p980
VTalrane
p981
g919
tp982
tp983
Rp984
ag3
(g4
g5
(VDaybreak
p985
VPCwiz
p986
g919
tp987
tp988
Rp989
ag3
(g4
g5
(VTweek
p990
g72
g919
tp991
tp992
Rp993
ag3
(g4
g5
(VNJzFinest
p994
g43
g919
tp995
tp996
Rp997
ag3
(g4
g5
(g32
g510
g919
tp998
tp999
Rp1000
ag3
(g4
g5
(VGreen Lantern
p1001
VDaybreak
p1002
g919
tp1003
tp1004
Rp1005
ag3
(g4
g5
(VTweek
p1006
VNJzFinest
p1007
g919
tp1008
tp1009
Rp1010
ag3
(g4
g5
(VGreen Lantern
p1011
g32
g919
tp1012
tp1013
Rp1014
ag3
(g4
g5
(VGreen Lantern
p1015
VTweek
p1016
g919
tp1017
tp1018
Rp1019
ag3
(g4
g5
(g72
VGreen Lantern
p1020
g919
tp1021
tp1022
Rp1023
ag3
(g4
g5
(g72
VGreen Lantern
p1024
g919
tp1025
tp1026
Rp1027
ag3
(g4
g5
(VYCJ
p1028
VCypher
p1029
g919
tp1030
tp1031
Rp1032
ag3
(g4
g5
(VPCwiz
p1033
g252
g919
tp1034
tp1035
Rp1036
ag3
(g4
g5
(VYCJ
p1037
VTalrane
p1038
g919
tp1039
tp1040
Rp1041
ag3
(g4
g5
(g22
VFable
p1042
g919
tp1043
tp1044
Rp1045
ag3
(g4
g5
(g27
VLink?
p1046
g919
tp1047
tp1048
Rp1049
ag3
(g4
g5
(g52
VTongue
p1050
g919
tp1051
tp1052
Rp1053
ag3
(g4
g5
(g317
VScott
p1054
g919
tp1055
tp1056
Rp1057
ag3
(g4
g5
(g17
VWatson
p1058
g919
tp1059
tp1060
Rp1061
ag3
(g4
g5
(VHimes
p1062
Vchris
p1063
g919
tp1064
tp1065
Rp1066
ag3
(g4
g5
(VPCwiz
p1067
VYCJ
p1068
g919
tp1069
tp1070
Rp1071
ag3
(g4
g5
(g22
g27
g919
tp1072
tp1073
Rp1074
ag3
(g4
g5
(g317
g52
g919
tp1075
tp1076
Rp1077
ag3
(g4
g5
(g17
VHimes
p1078
g919
tp1079
tp1080
Rp1081
ag3
(g4
g5
(g43
VPCwiz
p1082
g919
tp1083
tp1084
Rp1085
ag3
(g4
g5
(g72
g22
g919
tp1086
tp1087
Rp1088
ag3
(g4
g5
(VDaybreak
p1089
g317
g919
tp1090
tp1091
Rp1092
ag3
(g4
g5
(g17
g510
g919
tp1093
tp1094
Rp1095
ag3
(g4
g5
(g72
g43
g919
tp1096
tp1097
Rp1098
ag3
(g4
g5
(g17
VDaybreak
p1099
g919
tp1100
tp1101
Rp1102
ag3
(g4
g5
(g72
g32
g919
tp1103
tp1104
Rp1105
ag3
(g4
g5
(VNJzFinest
p1106
g17
g919
tp1107
tp1108
Rp1109
ag3
(g4
g5
(g72
VNJzFinest
p1110
g919
tp1111
tp1112
Rp1113
ag3
(g4
g5
(g72
VTweek
p1114
g919
tp1115
tp1116
Rp1117
asS'players'
p1118
(lp1119
g68
ag63
ag773
ag274
ag511
ag492
ag43
ag488
ag72
ag510
ag258
ag954
ag58
ag924
ag721
ag312
ag293
ag62
ag484
ag742
ag716
ag12
ag32
ag506
ag715
ag297
ag980
ag711
ag918
ag275
ag88
ag520
ag33
ag53
ag252
ag270
ag13
ag23
ag37
ag266
ag22
ag279
ag479
ag496
ag483
ag57
ag515
ag284
ag27
ag47
ag289
ag97
ag953
ag524
ag42
ag474
ag48
ag317
ag28
ag67
ag948
ag726
ag38
ag17
ag940
ag551
ag283
ag730
ag18
ag253
ag928
ag52
ag7
ag6
as.