(dp0
Vmkolpnji
p1
(ccopy_reg
_reconstructor
p2
(cpreprocess
Match
p3
c__builtin__
tuple
p4
(g1
VTheftz
p5
VPrinceton Weekly 4
p6
tp7
tp8
Rp9
I3
tp10
sVTS I Lord Knight
p11
(g2
(g3
g4
(g11
VNJzFinest
p12
VPrinceton Weekly 3
p13
tp14
tp15
Rp16
I4
tp17
sVIcer
p18
(g2
(g3
g4
(g18
VTweek
p19
g6
tp20
tp21
Rp22
I2
tp23
sVBigFoig
p24
(g2
(g3
g4
(g24
VSmelly Cat
p25
VPrinceton Weekly 5
p26
tp27
tp28
Rp29
I4
tp30
sVTweek
p31
(g2
(g3
g4
(g31
VC!Z
p32
g26
tp33
tp34
Rp35
I1
tp36
sS'C!Z'
p37
(NI0
tp38
sg5
(g2
(g3
g4
(g5
VTweek
p39
VPrinceton Weekly 2
p40
tp41
tp42
Rp43
I2
tp44
sVKmac
p45
(g2
(g3
g4
(g45
g24
VPrinceton Weekly 1
p46
tp47
tp48
Rp49
I5
tp50
sVDestructicon
p51
(g2
(g3
g4
(g51
VPyro
p52
g46
tp53
tp54
Rp55
I4
tp56
sVEmanon
p57
(g2
(g3
g4
(g57
VTweek
p58
g40
tp59
tp60
Rp61
I2
tp62
sVNation
p63
(g2
(g3
g4
(g63
VKosa
p64
g46
tp65
tp66
Rp67
I5
tp68
sVZealous
p69
(g2
(g3
g4
(g69
VYTG
p70
g13
tp71
tp72
Rp73
I5
tp74
sVNJzFinest
p75
(g2
(g3
g4
(g75
g5
g26
tp76
tp77
Rp78
I3
tp79
sVEnV
p80
(g2
(g3
g4
(g80
VEmanon
p81
g6
tp82
tp83
Rp84
I3
tp85
sg25
(g2
(g3
g4
(g25
g5
g40
tp86
tp87
Rp88
I3
tp89
sVOverflow
p90
(g2
(g3
g4
(g90
VCall Me Mars
p91
g6
tp92
tp93
Rp94
I3
tp95
sg91
(g2
(g3
g4
(g91
VTweek
p96
g13
tp97
tp98
Rp99
I2
tp100
sVJavier
p101
(g2
(g3
g4
(g101
g5
g40
tp102
tp103
Rp104
I3
tp105
sVMGFC I Dekunut
p106
(g2
(g3
g4
(g106
g80
g13
tp107
tp108
Rp109
I4
tp110
sVKofi
p111
(g2
(g3
g4
(g111
g63
g40
tp112
tp113
Rp114
I6
tp115
sVCF
p116
(g2
(g3
g4
(g116
g1
g13
tp117
tp118
Rp119
I4
tp120
sVPyro
p121
(g2
(g3
g4
(g121
g5
g46
tp122
tp123
Rp124
I3
tp125
sVPeanutphobia
p126
(g2
(g3
g4
(g126
VCF
p127
g13
tp128
tp129
Rp130
I5
tp131
sg70
(g2
(g3
g4
(g70
g1
g13
tp132
tp133
Rp134
I4
tp135
sVZodiac
p136
(g2
(g3
g4
(g136
VEmanon
p137
g46
tp138
tp139
Rp140
I3
tp141
sVDudeacockus
p142
(g2
(g3
g4
(g142
g64
g6
tp143
tp144
Rp145
I5
tp146
sVDaybreak
p147
(g2
(g3
g4
(g147
g91
g13
tp148
tp149
Rp150
I3
tp151
sVGreen Lantern
p152
(g2
(g3
g4
(g152
VTweek
p153
g26
tp154
tp155
Rp156
I2
tp157
sg64
(g2
(g3
g4
(g64
g1
g40
tp158
tp159
Rp160
I4
tp161
sVSon2
p162
(g2
(g3
g4
(g162
g18
g46
tp163
tp164
Rp165
I3
tp166
sVAlex The God
p167
(g2
(g3
g4
(g167
g25
g6
tp168
tp169
Rp170
I4
tp171
s.