(dp0
S'matches'
p1
(lp2
(dp3
Vwinner
p4
VZodiac
p5
sVevent
p6
VPrinceton Weekly 1
p7
sVloser
p8
VZealous
p9
sa(dp10
Vwinner
p11
VEmanon
p12
sVevent
p13
VPrinceton Weekly 1
p14
sVloser
p15
VJustin Wong
p16
sa(dp17
Vwinner
p18
VTheftz
p19
sVevent
p20
VPrinceton Weekly 1
p21
sVloser
p22
VVenz
p23
sa(dp24
Vwinner
p25
VKosa
p26
sVevent
p27
VPrinceton Weekly 1
p28
sVloser
p29
VKevin Liu
p30
sa(dp31
Vwinner
p32
VNation
p33
sVevent
p34
VPrinceton Weekly 1
p35
sVloser
p36
VSomar
p37
sa(dp38
Vwinner
p39
VEnV
p40
sVevent
p41
VPrinceton Weekly 1
p42
sVloser
p43
VJack
p44
sa(dp45
Vwinner
p46
VKmac
p47
sVevent
p48
VPrinceton Weekly 1
p49
sVloser
p50
VThatPrincetonWeekliesGuy
p51
sa(dp52
Vwinner
p53
VPyro
p54
sVevent
p55
VPrinceton Weekly 1
p56
sVloser
p57
VBigFoig
p58
sa(dp59
Vwinner
p60
VNJzFinest
p61
sVevent
p62
VPrinceton Weekly 1
p63
sVloser
p64
VScrandino
p65
sa(dp66
Vwinner
p67
VYTG
p68
sVevent
p69
VPrinceton Weekly 1
p70
sVloser
p71
VJahn
p72
sa(dp73
Vwinner
p74
Vmkolpnji
p75
sVevent
p76
VPrinceton Weekly 1
p77
sVloser
p78
VColonel
p79
sa(dp80
Vwinner
p81
VDestructicon
p82
sVevent
p83
VPrinceton Weekly 1
p84
sVloser
p85
VADVANCED
p86
sa(dp87
Vwinner
p88
VSon2
p89
sVevent
p90
VPrinceton Weekly 1
p91
sVloser
p92
V8
p93
sa(dp94
Vwinner
p95
VC!Z
p96
sVevent
p97
VPrinceton Weekly 1
p98
sVloser
p99
VZodiac
p100
sa(dp101
Vwinner
p102
g19
sVevent
p103
VPrinceton Weekly 1
p104
sVloser
p105
VEmanon
p106
sa(dp107
Vwinner
p108
g33
sVevent
p109
VPrinceton Weekly 1
p110
sVloser
p111
VKosa
p112
sa(dp113
Vwinner
p114
g40
sVevent
p115
VPrinceton Weekly 1
p116
sVloser
p117
VKmac
p118
sa(dp119
Vwinner
p120
VIcer
p121
sVevent
p122
VPrinceton Weekly 1
p123
sVloser
p124
VPyro
p125
sa(dp126
Vwinner
p127
g61
sVevent
p128
VPrinceton Weekly 1
p129
sVloser
p130
g68
sa(dp131
Vwinner
p132
VOverflow
p133
sVevent
p134
VPrinceton Weekly 1
p135
sVloser
p136
g75
sa(dp137
Vwinner
p138
VSon2
p139
sVevent
p140
VPrinceton Weekly 1
p141
sVloser
p142
VDestructicon
p143
sa(dp144
Vwinner
p145
g96
sVevent
p146
VPrinceton Weekly 1
p147
sVloser
p148
g19
sa(dp149
Vwinner
p150
g40
sVevent
p151
VPrinceton Weekly 1
p152
sVloser
p153
g33
sa(dp154
Vwinner
p155
g121
sVevent
p156
VPrinceton Weekly 1
p157
sVloser
p158
g61
sa(dp159
Vwinner
p160
VOverflow
p161
sVevent
p162
VPrinceton Weekly 1
p163
sVloser
p164
VSon2
p165
sa(dp166
Vwinner
p167
g96
sVevent
p168
VPrinceton Weekly 1
p169
sVloser
p170
g40
sa(dp171
Vwinner
p172
g121
sVevent
p173
VPrinceton Weekly 1
p174
sVloser
p175
VOverflow
p176
sa(dp177
Vwinner
p178
g96
sVevent
p179
VPrinceton Weekly 1
p180
sVloser
p181
g121
sa(dp182
Vwinner
p183
g96
sVevent
p184
VPrinceton Weekly 1
p185
sVloser
p186
VSon2
p187
sa(dp188
Vwinner
p189
VJustin Wong
p190
sVevent
p191
VPrinceton Weekly 1
p192
sVloser
p193
VVenz
p194
sa(dp195
Vwinner
p196
VSomar
p197
sVevent
p198
VPrinceton Weekly 1
p199
sVloser
p200
VKevin Liu
p201
sa(dp202
Vwinner
p203
VThatPrincetonWeekliesGuy
p204
sVevent
p205
VPrinceton Weekly 1
p206
sVloser
p207
VJack
p208
sa(dp209
Vwinner
p210
VJahn
p211
sVevent
p212
VPrinceton Weekly 1
p213
sVloser
p214
VScrandino
p215
sa(dp216
Vwinner
p217
g86
sVevent
p218
VPrinceton Weekly 1
p219
sVloser
p220
V8
p221
sa(dp222
Vwinner
p223
VDestructicon
p224
sVevent
p225
VPrinceton Weekly 1
p226
sVloser
p227
g9
sa(dp228
Vwinner
p229
g75
sVevent
p230
VPrinceton Weekly 1
p231
sVloser
p232
VJustin Wong
p233
sa(dp234
Vwinner
p235
g68
sVevent
p236
VPrinceton Weekly 1
p237
sVloser
p238
VSomar
p239
sa(dp240
Vwinner
p241
VPyro
p242
sVevent
p243
VPrinceton Weekly 1
p244
sVloser
p245
VThatPrincetonWeekliesGuy
p246
sa(dp247
Vwinner
p248
VKmac
p249
sVevent
p250
VPrinceton Weekly 1
p251
sVloser
p252
g58
sa(dp253
Vwinner
p254
VKosa
p255
sVevent
p256
VPrinceton Weekly 1
p257
sVloser
p258
VJahn
p259
sa(dp260
Vwinner
p261
VEmanon
p262
sVevent
p263
VPrinceton Weekly 1
p264
sVloser
p265
VColonel
p266
sa(dp267
Vwinner
p268
VZodiac
p269
sVevent
p270
VPrinceton Weekly 1
p271
sVloser
p272
g86
sa(dp273
Vwinner
p274
VDestructicon
p275
sVevent
p276
VPrinceton Weekly 1
p277
sVloser
p278
g75
sa(dp279
Vwinner
p280
VPyro
p281
sVevent
p282
VPrinceton Weekly 1
p283
sVloser
p284
g68
sa(dp285
Vwinner
p286
VKmac
p287
sVevent
p288
VPrinceton Weekly 1
p289
sVloser
p290
VKosa
p291
sa(dp292
Vwinner
p293
VZodiac
p294
sVevent
p295
VPrinceton Weekly 1
p296
sVloser
p297
VEmanon
p298
sa(dp299
Vwinner
p300
VDestructicon
p301
sVevent
p302
VPrinceton Weekly 1
p303
sVloser
p304
g33
sa(dp305
Vwinner
p306
VPyro
p307
sVevent
p308
VPrinceton Weekly 1
p309
sVloser
p310
g19
sa(dp311
Vwinner
p312
VSon2
p313
sVevent
p314
VPrinceton Weekly 1
p315
sVloser
p316
VKmac
p317
sa(dp318
Vwinner
p319
g61
sVevent
p320
VPrinceton Weekly 1
p321
sVloser
p322
VZodiac
p323
sa(dp324
Vwinner
p325
VDestructicon
p326
sVevent
p327
VPrinceton Weekly 1
p328
sVloser
p329
VPyro
p330
sa(dp331
Vwinner
p332
VSon2
p333
sVevent
p334
VPrinceton Weekly 1
p335
sVloser
p336
g61
sa(dp337
Vwinner
p338
VOverflow
p339
sVevent
p340
VPrinceton Weekly 1
p341
sVloser
p342
VDestructicon
p343
sa(dp344
Vwinner
p345
VSon2
p346
sVevent
p347
VPrinceton Weekly 1
p348
sVloser
p349
g40
sa(dp350
Vwinner
p351
VSon2
p352
sVevent
p353
VPrinceton Weekly 1
p354
sVloser
p355
VOverflow
p356
sa(dp357
Vwinner
p358
VSon2
p359
sVevent
p360
VPrinceton Weekly 1
p361
sVloser
p362
g121
sa(dp363
Vwinner
p364
VJake From State Farm
p365
sVevent
p366
VPrinceton Weekly 2
p367
sVloser
p368
VWatson
p369
sa(dp370
Vwinner
p371
g58
sVevent
p372
VPrinceton Weekly 2
p373
sVloser
p374
VCF
p375
sa(dp376
Vwinner
p377
g68
sVevent
p378
VPrinceton Weekly 2
p379
sVloser
p380
V8
p381
sa(dp382
Vwinner
p383
VKofi
p384
sVevent
p385
VPrinceton Weekly 2
p386
sVloser
p387
g33
sa(dp388
Vwinner
p389
VJavier
p390
sVevent
p391
VPrinceton Weekly 2
p392
sVloser
p393
g9
sa(dp394
Vwinner
p395
VArias
p396
sVevent
p397
VPrinceton Weekly 2
p398
sVloser
p399
VI like rice
p400
sa(dp401
Vwinner
p402
g19
sVevent
p403
VPrinceton Weekly 2
p404
sVloser
p405
VLink?
p406
sa(dp407
Vwinner
p408
VTweek
p409
sVevent
p410
VPrinceton Weekly 2
p411
sVloser
p412
VN2XX I Prison Mike
p413
sa(dp414
Vwinner
p415
VEmanon
p416
sVevent
p417
VPrinceton Weekly 2
p418
sVloser
p419
VOPC
p420
sa(dp421
Vwinner
p422
VKosa
p423
sVevent
p424
VPrinceton Weekly 2
p425
sVloser
p426
VDesai
p427
sa(dp428
Vwinner
p429
g75
sVevent
p430
VPrinceton Weekly 2
p431
sVloser
p432
VFranjoe
p433
sa(dp434
Vwinner
p435
g121
sVevent
p436
VPrinceton Weekly 2
p437
sVloser
p438
g365
sa(dp439
Vwinner
p440
g58
sVevent
p441
VPrinceton Weekly 2
p442
sVloser
p443
g68
sa(dp444
Vwinner
p445
g61
sVevent
p446
VPrinceton Weekly 2
p447
sVloser
p448
VKofi
p449
sa(dp450
Vwinner
p451
VDaybreak
p452
sVevent
p453
VPrinceton Weekly 2
p454
sVloser
p455
VJavier
p456
sa(dp457
Vwinner
p458
VSmelly Cat
p459
sVevent
p460
VPrinceton Weekly 2
p461
sVloser
p462
VArias
p463
sa(dp464
Vwinner
p465
g19
sVevent
p466
VPrinceton Weekly 2
p467
sVloser
p468
g409
sa(dp469
Vwinner
p470
VEmanon
p471
sVevent
p472
VPrinceton Weekly 2
p473
sVloser
p474
VOverflow
p475
sa(dp476
Vwinner
p477
VKosa
p478
sVevent
p479
VPrinceton Weekly 2
p480
sVloser
p481
g75
sa(dp482
Vwinner
p483
g121
sVevent
p484
VPrinceton Weekly 2
p485
sVloser
p486
g58
sa(dp487
Vwinner
p488
g61
sVevent
p489
VPrinceton Weekly 2
p490
sVloser
p491
g452
sa(dp492
Vwinner
p493
g459
sVevent
p494
VPrinceton Weekly 2
p495
sVloser
p496
g19
sa(dp497
Vwinner
p498
VEmanon
p499
sVevent
p500
VPrinceton Weekly 2
p501
sVloser
p502
VKosa
p503
sa(dp504
Vwinner
p505
g121
sVevent
p506
VPrinceton Weekly 2
p507
sVloser
p508
g61
sa(dp509
Vwinner
p510
g459
sVevent
p511
VPrinceton Weekly 2
p512
sVloser
p513
VEmanon
p514
sa(dp515
Vwinner
p516
g121
sVevent
p517
VPrinceton Weekly 2
p518
sVloser
p519
g459
sa(dp520
Vwinner
p521
g121
sVevent
p522
VPrinceton Weekly 2
p523
sVloser
p524
g459
sa(dp525
Vwinner
p526
VCF
p527
sVevent
p528
VPrinceton Weekly 2
p529
sVloser
p530
V8
p531
sa(dp532
Vwinner
p533
VN2XX I Prison Mike
p534
sVevent
p535
VPrinceton Weekly 2
p536
sVloser
p537
g406
sa(dp538
Vwinner
p539
VFranjoe
p540
sVevent
p541
VPrinceton Weekly 2
p542
sVloser
p543
VDesai
p544
sa(dp545
Vwinner
p546
g75
sVevent
p547
VPrinceton Weekly 2
p548
sVloser
p549
g369
sa(dp550
Vwinner
p551
VOverflow
p552
sVevent
p553
VPrinceton Weekly 2
p554
sVloser
p555
VCF
p556
sa(dp557
Vwinner
p558
g409
sVevent
p559
VPrinceton Weekly 2
p560
sVloser
p561
g33
sa(dp562
Vwinner
p563
g9
sVevent
p564
VPrinceton Weekly 2
p565
sVloser
p566
VArias
p567
sa(dp568
Vwinner
p569
VJavier
p570
sVevent
p571
VPrinceton Weekly 2
p572
sVloser
p573
VI like rice
p574
sa(dp575
Vwinner
p576
VKofi
p577
sVevent
p578
VPrinceton Weekly 2
p579
sVloser
p580
VN2XX I Prison Mike
p581
sa(dp582
Vwinner
p583
g68
sVevent
p584
VPrinceton Weekly 2
p585
sVloser
p586
VOPC
p587
sa(dp588
Vwinner
p589
g365
sVevent
p590
VPrinceton Weekly 2
p591
sVloser
p592
VFranjoe
p593
sa(dp594
Vwinner
p595
VOverflow
p596
sVevent
p597
VPrinceton Weekly 2
p598
sVloser
p599
g75
sa(dp600
Vwinner
p601
g409
sVevent
p602
VPrinceton Weekly 2
p603
sVloser
p604
g9
sa(dp605
Vwinner
p606
VJavier
p607
sVevent
p608
VPrinceton Weekly 2
p609
sVloser
p610
VKofi
p611
sa(dp612
Vwinner
p613
g68
sVevent
p614
VPrinceton Weekly 2
p615
sVloser
p616
g365
sa(dp617
Vwinner
p618
g452
sVevent
p619
VPrinceton Weekly 2
p620
sVloser
p621
VOverflow
p622
sa(dp623
Vwinner
p624
g409
sVevent
p625
VPrinceton Weekly 2
p626
sVloser
p627
g58
sa(dp628
Vwinner
p629
VJavier
p630
sVevent
p631
VPrinceton Weekly 2
p632
sVloser
p633
VKosa
p634
sa(dp635
Vwinner
p636
g19
sVevent
p637
VPrinceton Weekly 2
p638
sVloser
p639
g68
sa(dp640
Vwinner
p641
g409
sVevent
p642
VPrinceton Weekly 2
p643
sVloser
p644
g452
sa(dp645
Vwinner
p646
VJavier
p647
sVevent
p648
VPrinceton Weekly 2
p649
sVloser
p650
g19
sa(dp651
Vwinner
p652
VEmanon
p653
sVevent
p654
VPrinceton Weekly 2
p655
sVloser
p656
g409
sa(dp657
Vwinner
p658
g61
sVevent
p659
VPrinceton Weekly 2
p660
sVloser
p661
VJavier
p662
sa(dp663
Vwinner
p664
g61
sVevent
p665
VPrinceton Weekly 2
p666
sVloser
p667
VEmanon
p668
sa(dp669
Vwinner
p670
g459
sVevent
p671
VPrinceton Weekly 2
p672
sVloser
p673
g61
sa(dp674
Vwinner
p675
VCF
p676
sVevent
p677
VPrinceton Weekly 3
p678
sVloser
p679
g75
sa(dp680
Vwinner
p681
VOverflow
p682
sVevent
p683
VPrinceton Weekly 3
p684
sVloser
p685
VScott
p686
sa(dp687
Vwinner
p688
g409
sVevent
p689
VPrinceton Weekly 3
p690
sVloser
p691
VMars
p692
sa(dp693
Vwinner
p694
VMGFC I Dekunut
p695
sVevent
p696
VPrinceton Weekly 3
p697
sVloser
p698
VDougie Fresh
p699
sa(dp700
Vwinner
p701
g86
sVevent
p702
VPrinceton Weekly 3
p703
sVloser
p704
VBlank Dots
p705
sa(dp706
Vwinner
p707
g40
sVevent
p708
VPrinceton Weekly 3
p709
sVloser
p710
VBDukes
p711
sa(dp712
Vwinner
p713
VKosa
p714
sVevent
p715
VPrinceton Weekly 3
p716
sVloser
p717
g365
sa(dp718
Vwinner
p719
VKofi
p720
sVevent
p721
VPrinceton Weekly 3
p722
sVloser
p723
VOPC
p724
sa(dp725
Vwinner
p726
g452
sVevent
p727
VPrinceton Weekly 3
p728
sVloser
p729
VFable
p730
sa(dp731
Vwinner
p732
VCall Me Mars
p733
sVevent
p734
VPrinceton Weekly 3
p735
sVloser
p736
VAzy
p737
sa(dp738
Vwinner
p739
g9
sVevent
p740
VPrinceton Weekly 3
p741
sVloser
p742
VMr. Clean
p743
sa(dp744
Vwinner
p745
g61
sVevent
p746
VPrinceton Weekly 3
p747
sVloser
p748
VImmersion
p749
sa(dp750
Vwinner
p751
g68
sVevent
p752
VPrinceton Weekly 3
p753
sVloser
p754
VPeanutphobia
p755
sa(dp756
Vwinner
p757
g96
sVevent
p758
VPrinceton Weekly 3
p759
sVloser
p760
VCF
p761
sa(dp762
Vwinner
p763
g409
sVevent
p764
VPrinceton Weekly 3
p765
sVloser
p766
VOverflow
p767
sa(dp768
Vwinner
p769
VMGFC I Dekunut
p770
sVevent
p771
VPrinceton Weekly 3
p772
sVloser
p773
g86
sa(dp774
Vwinner
p775
g40
sVevent
p776
VPrinceton Weekly 3
p777
sVloser
p778
VKosa
p779
sa(dp780
Vwinner
p781
g121
sVevent
p782
VPrinceton Weekly 3
p783
sVloser
p784
VKofi
p785
sa(dp786
Vwinner
p787
g452
sVevent
p788
VPrinceton Weekly 3
p789
sVloser
p790
g733
sa(dp791
Vwinner
p792
VTS I Lord Knight
p793
sVevent
p794
VPrinceton Weekly 3
p795
sVloser
p796
g9
sa(dp797
Vwinner
p798
g61
sVevent
p799
VPrinceton Weekly 3
p800
sVloser
p801
g68
sa(dp802
Vwinner
p803
g96
sVevent
p804
VPrinceton Weekly 3
p805
sVloser
p806
g409
sa(dp807
Vwinner
p808
VMGFC I Dekunut
p809
sVevent
p810
VPrinceton Weekly 3
p811
sVloser
p812
g40
sa(dp813
Vwinner
p814
g452
sVevent
p815
VPrinceton Weekly 3
p816
sVloser
p817
g121
sa(dp818
Vwinner
p819
VTS I Lord Knight
p820
sVevent
p821
VPrinceton Weekly 3
p822
sVloser
p823
g61
sa(dp824
Vwinner
p825
g96
sVevent
p826
VPrinceton Weekly 3
p827
sVloser
p828
VMGFC I Dekunut
p829
sa(dp830
Vwinner
p831
g452
sVevent
p832
VPrinceton Weekly 3
p833
sVloser
p834
VTS I Lord Knight
p835
sa(dp836
Vwinner
p837
g96
sVevent
p838
VPrinceton Weekly 3
p839
sVloser
p840
g452
sa(dp841
Vwinner
p842
g96
sVevent
p843
VPrinceton Weekly 3
p844
sVloser
p845
g121
sa(dp846
Vwinner
p847
VMars
p848
sVevent
p849
VPrinceton Weekly 3
p850
sVloser
p851
g686
sa(dp852
Vwinner
p853
VBlank Dots
p854
sVevent
p855
VPrinceton Weekly 3
p856
sVloser
p857
VDougie Fresh
p858
sa(dp859
Vwinner
p860
g365
sVevent
p861
VPrinceton Weekly 3
p862
sVloser
p863
VBDukes
p864
sa(dp865
Vwinner
p866
VAzy
p867
sVevent
p868
VPrinceton Weekly 3
p869
sVloser
p870
g730
sa(dp871
Vwinner
p872
VPeanutphobia
p873
sVevent
p874
VPrinceton Weekly 3
p875
sVloser
p876
VImmersion
p877
sa(dp878
Vwinner
p879
g68
sVevent
p880
VPrinceton Weekly 3
p881
sVloser
p882
g75
sa(dp883
Vwinner
p884
g9
sVevent
p885
VPrinceton Weekly 3
p886
sVloser
p887
VMars
p888
sa(dp889
Vwinner
p890
g733
sVevent
p891
VPrinceton Weekly 3
p892
sVloser
p893
VBlank Dots
p894
sa(dp895
Vwinner
p896
VKofi
p897
sVevent
p898
VPrinceton Weekly 3
p899
sVloser
p900
g365
sa(dp901
Vwinner
p902
VKosa
p903
sVevent
p904
VPrinceton Weekly 3
p905
sVloser
p906
VOPC
p907
sa(dp908
Vwinner
p909
VAzy
p910
sVevent
p911
VPrinceton Weekly 3
p912
sVloser
p913
g86
sa(dp914
Vwinner
p915
VOverflow
p916
sVevent
p917
VPrinceton Weekly 3
p918
sVloser
p919
VMr. Clean
p920
sa(dp921
Vwinner
p922
VPeanutphobia
p923
sVevent
p924
VPrinceton Weekly 3
p925
sVloser
p926
VCF
p927
sa(dp928
Vwinner
p929
g9
sVevent
p930
VPrinceton Weekly 3
p931
sVloser
p932
g68
sa(dp933
Vwinner
p934
g733
sVevent
p935
VPrinceton Weekly 3
p936
sVloser
p937
VKofi
p938
sa(dp939
Vwinner
p940
VKosa
p941
sVevent
p942
VPrinceton Weekly 3
p943
sVloser
p944
VAzy
p945
sa(dp946
Vwinner
p947
VOverflow
p948
sVevent
p949
VPrinceton Weekly 3
p950
sVloser
p951
VPeanutphobia
p952
sa(dp953
Vwinner
p954
g40
sVevent
p955
VPrinceton Weekly 3
p956
sVloser
p957
g9
sa(dp958
Vwinner
p959
g733
sVevent
p960
VPrinceton Weekly 3
p961
sVloser
p962
g409
sa(dp963
Vwinner
p964
g61
sVevent
p965
VPrinceton Weekly 3
p966
sVloser
p967
VKosa
p968
sa(dp969
Vwinner
p970
g121
sVevent
p971
VPrinceton Weekly 3
p972
sVloser
p973
VOverflow
p974
sa(dp975
Vwinner
p976
g40
sVevent
p977
VPrinceton Weekly 3
p978
sVloser
p979
g733
sa(dp980
Vwinner
p981
g121
sVevent
p982
VPrinceton Weekly 3
p983
sVloser
p984
g61
sa(dp985
Vwinner
p986
g40
sVevent
p987
VPrinceton Weekly 3
p988
sVloser
p989
VTS I Lord Knight
p990
sa(dp991
Vwinner
p992
g121
sVevent
p993
VPrinceton Weekly 3
p994
sVloser
p995
VMGFC I Dekunut
p996
sa(dp997
Vwinner
p998
g121
sVevent
p999
VPrinceton Weekly 3
p1000
sVloser
p1001
g40
sa(dp1002
Vwinner
p1003
g121
sVevent
p1004
VPrinceton Weekly 3
p1005
sVloser
p1006
g452
sa(dp1007
Vwinner
p1008
g75
sVevent
p1009
VPrinceton Weekly 4
p1010
sVloser
p1011
VMr. Clean
p1012
sa(dp1013
Vwinner
p1014
g19
sVevent
p1015
VPrinceton Weekly 4
p1016
sVloser
p1017
g369
sa(dp1018
Vwinner
p1019
g409
sVevent
p1020
VPrinceton Weekly 4
p1021
sVloser
p1022
VGun
p1023
sa(dp1024
Vwinner
p1025
VFlip
p1026
sVevent
p1027
VPrinceton Weekly 4
p1028
sVloser
p1029
VEazyDI
p1030
sa(dp1031
Vwinner
p1032
VZodiac
p1033
sVevent
p1034
VPrinceton Weekly 4
p1035
sVloser
p1036
VDan
p1037
sa(dp1038
Vwinner
p1039
VEmanon
p1040
sVevent
p1041
VPrinceton Weekly 4
p1042
sVloser
p1043
VTeam
p1044
sa(dp1045
Vwinner
p1046
VOverflow
p1047
sVevent
p1048
VPrinceton Weekly 4
p1049
sVloser
p1050
VUltimate Raven
p1051
sa(dp1052
Vwinner
p1053
g733
sVevent
p1054
VPrinceton Weekly 4
p1055
sVloser
p1056
g730
sa(dp1057
Vwinner
p1058
VCF
p1059
sVevent
p1060
VPrinceton Weekly 4
p1061
sVloser
p1062
g86
sa(dp1063
Vwinner
p1064
VDudeacockus
p1065
sVevent
p1066
VPrinceton Weekly 4
p1067
sVloser
p1068
VScrandino
p1069
sa(dp1070
Vwinner
p1071
VKosa
p1072
sVevent
p1073
VPrinceton Weekly 4
p1074
sVloser
p1075
g365
sa(dp1076
Vwinner
p1077
g121
sVevent
p1078
VPrinceton Weekly 4
p1079
sVloser
p1080
g75
sa(dp1081
Vwinner
p1082
g409
sVevent
p1083
VPrinceton Weekly 4
p1084
sVloser
p1085
g19
sa(dp1086
Vwinner
p1087
g452
sVevent
p1088
VPrinceton Weekly 4
p1089
sVloser
p1090
VFlip
p1091
sa(dp1092
Vwinner
p1093
g40
sVevent
p1094
VPrinceton Weekly 4
p1095
sVloser
p1096
VZodiac
p1097
sa(dp1098
Vwinner
p1099
g459
sVevent
p1100
VPrinceton Weekly 4
p1101
sVloser
p1102
VEmanon
p1103
sa(dp1104
Vwinner
p1105
VOverflow
p1106
sVevent
p1107
VPrinceton Weekly 4
p1108
sVloser
p1109
g733
sa(dp1110
Vwinner
p1111
VAlex The God
p1112
sVevent
p1113
VPrinceton Weekly 4
p1114
sVloser
p1115
VCF
p1116
sa(dp1117
Vwinner
p1118
VDudeacockus
p1119
sVevent
p1120
VPrinceton Weekly 4
p1121
sVloser
p1122
VKosa
p1123
sa(dp1124
Vwinner
p1125
g121
sVevent
p1126
VPrinceton Weekly 4
p1127
sVloser
p1128
g409
sa(dp1129
Vwinner
p1130
g452
sVevent
p1131
VPrinceton Weekly 4
p1132
sVloser
p1133
g40
sa(dp1134
Vwinner
p1135
g459
sVevent
p1136
VPrinceton Weekly 4
p1137
sVloser
p1138
VOverflow
p1139
sa(dp1140
Vwinner
p1141
g1112
sVevent
p1142
VPrinceton Weekly 4
p1143
sVloser
p1144
VDudeacockus
p1145
sa(dp1146
Vwinner
p1147
g121
sVevent
p1148
VPrinceton Weekly 4
p1149
sVloser
p1150
g452
sa(dp1151
Vwinner
p1152
g1112
sVevent
p1153
VPrinceton Weekly 4
p1154
sVloser
p1155
g459
sa(dp1156
Vwinner
p1157
g121
sVevent
p1158
VPrinceton Weekly 4
p1159
sVloser
p1160
g1112
sa(dp1161
Vwinner
p1162
g121
sVevent
p1163
VPrinceton Weekly 4
p1164
sVloser
p1165
g1112
sa(dp1166
Vwinner
p1167
VGun
p1168
sVevent
p1169
VPrinceton Weekly 4
p1170
sVloser
p1171
g369
sa(dp1172
Vwinner
p1173
g730
sVevent
p1174
VPrinceton Weekly 4
p1175
sVloser
p1176
g1051
sa(dp1177
Vwinner
p1178
g365
sVevent
p1179
VPrinceton Weekly 4
p1180
sVloser
p1181
VScrandino
p1182
sa(dp1183
Vwinner
p1184
VKosa
p1185
sVevent
p1186
VPrinceton Weekly 4
p1187
sVloser
p1188
VMr. Clean
p1189
sa(dp1190
Vwinner
p1191
VCF
p1192
sVevent
p1193
VPrinceton Weekly 4
p1194
sVloser
p1195
VGun
p1196
sa(dp1197
Vwinner
p1198
g733
sVevent
p1199
VPrinceton Weekly 4
p1200
sVloser
p1201
g1030
sa(dp1202
Vwinner
p1203
VEmanon
p1204
sVevent
p1205
VPrinceton Weekly 4
p1206
sVloser
p1207
VDan
p1208
sa(dp1209
Vwinner
p1210
VZodiac
p1211
sVevent
p1212
VPrinceton Weekly 4
p1213
sVloser
p1214
VTeam
p1215
sa(dp1216
Vwinner
p1217
g730
sVevent
p1218
VPrinceton Weekly 4
p1219
sVloser
p1220
VFlip
p1221
sa(dp1222
Vwinner
p1223
g19
sVevent
p1224
VPrinceton Weekly 4
p1225
sVloser
p1226
g86
sa(dp1227
Vwinner
p1228
g75
sVevent
p1229
VPrinceton Weekly 4
p1230
sVloser
p1231
g365
sa(dp1232
Vwinner
p1233
VKosa
p1234
sVevent
p1235
VPrinceton Weekly 4
p1236
sVloser
p1237
VCF
p1238
sa(dp1239
Vwinner
p1240
VEmanon
p1241
sVevent
p1242
VPrinceton Weekly 4
p1243
sVloser
p1244
g733
sa(dp1245
Vwinner
p1246
VZodiac
p1247
sVevent
p1248
VPrinceton Weekly 4
p1249
sVloser
p1250
g730
sa(dp1251
Vwinner
p1252
g75
sVevent
p1253
VPrinceton Weekly 4
p1254
sVloser
p1255
g19
sa(dp1256
Vwinner
p1257
g40
sVevent
p1258
VPrinceton Weekly 4
p1259
sVloser
p1260
VKosa
p1261
sa(dp1262
Vwinner
p1263
VEmanon
p1264
sVevent
p1265
VPrinceton Weekly 4
p1266
sVloser
p1267
g409
sa(dp1268
Vwinner
p1269
VZodiac
p1270
sVevent
p1271
VPrinceton Weekly 4
p1272
sVloser
p1273
VDudeacockus
p1274
sa(dp1275
Vwinner
p1276
VOverflow
p1277
sVevent
p1278
VPrinceton Weekly 4
p1279
sVloser
p1280
g75
sa(dp1281
Vwinner
p1282
g40
sVevent
p1283
VPrinceton Weekly 4
p1284
sVloser
p1285
VEmanon
p1286
sa(dp1287
Vwinner
p1288
VOverflow
p1289
sVevent
p1290
VPrinceton Weekly 4
p1291
sVloser
p1292
VZodiac
p1293
sa(dp1294
Vwinner
p1295
g459
sVevent
p1296
VPrinceton Weekly 4
p1297
sVloser
p1298
g40
sa(dp1299
Vwinner
p1300
g452
sVevent
p1301
VPrinceton Weekly 4
p1302
sVloser
p1303
VOverflow
p1304
sa(dp1305
Vwinner
p1306
g452
sVevent
p1307
VPrinceton Weekly 4
p1308
sVloser
p1309
g459
sa(dp1310
Vwinner
p1311
g1112
sVevent
p1312
VPrinceton Weekly 4
p1313
sVloser
p1314
g452
sa(dp1315
Vwinner
p1316
VHimes
p1317
sVevent
p1318
VPrinceton Weekly 5
p1319
sVloser
p1320
g365
sa(dp1321
Vwinner
p1322
g409
sVevent
p1323
VPrinceton Weekly 5
p1324
sVloser
p1325
Vcypher
p1326
sa(dp1327
Vwinner
p1328
g19
sVevent
p1329
VPrinceton Weekly 5
p1330
sVloser
p1331
VYCJ
p1332
sa(dp1333
Vwinner
p1334
g58
sVevent
p1335
VPrinceton Weekly 5
p1336
sVloser
p1337
g730
sa(dp1338
Vwinner
p1339
g68
sVevent
p1340
VPrinceton Weekly 5
p1341
sVloser
p1342
g33
sa(dp1343
Vwinner
p1344
g406
sVevent
p1345
VPrinceton Weekly 5
p1346
sVloser
p1347
Vtongue
p1348
sa(dp1349
Vwinner
p1350
VKosa
p1351
sVevent
p1352
VPrinceton Weekly 5
p1353
sVloser
p1354
g686
sa(dp1355
Vwinner
p1356
Vtalrane
p1357
sVevent
p1358
VPrinceton Weekly 5
p1359
sVloser
p1360
g369
sa(dp1361
Vwinner
p1362
VPCwiz
p1363
sVevent
p1364
VPrinceton Weekly 5
p1365
sVloser
p1366
VCF
p1367
sa(dp1368
Vwinner
p1369
g96
sVevent
p1370
VPrinceton Weekly 5
p1371
sVloser
p1372
g1317
sa(dp1373
Vwinner
p1374
g409
sVevent
p1375
VPrinceton Weekly 5
p1376
sVloser
p1377
g19
sa(dp1378
Vwinner
p1379
g58
sVevent
p1380
VPrinceton Weekly 5
p1381
sVloser
p1382
g459
sa(dp1383
Vwinner
p1384
g61
sVevent
p1385
VPrinceton Weekly 5
p1386
sVloser
p1387
g68
sa(dp1388
Vwinner
p1389
g40
sVevent
p1390
VPrinceton Weekly 5
p1391
sVloser
p1392
g406
sa(dp1393
Vwinner
p1394
g733
sVevent
p1395
VPrinceton Weekly 5
p1396
sVloser
p1397
VKosa
p1398
sa(dp1399
Vwinner
p1400
VCopycat
p1401
sVevent
p1402
VPrinceton Weekly 5
p1403
sVloser
p1404
Vtalrane
p1405
sa(dp1406
Vwinner
p1407
g452
sVevent
p1408
VPrinceton Weekly 5
p1409
sVloser
p1410
VPCwiz
p1411
sa(dp1412
Vwinner
p1413
g409
sVevent
p1414
VPrinceton Weekly 5
p1415
sVloser
p1416
g96
sa(dp1417
Vwinner
p1418
g61
sVevent
p1419
VPrinceton Weekly 5
p1420
sVloser
p1421
g58
sa(dp1422
Vwinner
p1423
g40
sVevent
p1424
VPrinceton Weekly 5
p1425
sVloser
p1426
g733
sa(dp1427
Vwinner
p1428
VCopycat
p1429
sVevent
p1430
VPrinceton Weekly 5
p1431
sVloser
p1432
g452
sa(dp1433
Vwinner
p1434
g409
sVevent
p1435
VPrinceton Weekly 5
p1436
sVloser
p1437
g61
sa(dp1438
Vwinner
p1439
VCopycat
p1440
sVevent
p1441
VPrinceton Weekly 5
p1442
sVloser
p1443
g40
sa(dp1444
Vwinner
p1445
VCopycat
p1446
sVevent
p1447
VPrinceton Weekly 5
p1448
sVloser
p1449
g409
sa(dp1450
Vwinner
p1451
g96
sVevent
p1452
VPrinceton Weekly 5
p1453
sVloser
p1454
VCopycat
p1455
sa(dp1456
Vwinner
p1457
g96
sVevent
p1458
VPrinceton Weekly 5
p1459
sVloser
p1460
VCopycat
p1461
sa(dp1462
Vwinner
p1463
VYCJ
p1464
sVevent
p1465
VPrinceton Weekly 5
p1466
sVloser
p1467
Vcypher
p1468
sa(dp1469
Vwinner
p1470
VPCwiz
p1471
sVevent
p1472
VPrinceton Weekly 5
p1473
sVloser
p1474
g365
sa(dp1475
Vwinner
p1476
VYCJ
p1477
sVevent
p1478
VPrinceton Weekly 5
p1479
sVloser
p1480
Vtalrane
p1481
sa(dp1482
Vwinner
p1483
VKosa
p1484
sVevent
p1485
VPrinceton Weekly 5
p1486
sVloser
p1487
g730
sa(dp1488
Vwinner
p1489
g33
sVevent
p1490
VPrinceton Weekly 5
p1491
sVloser
p1492
g406
sa(dp1493
Vwinner
p1494
g68
sVevent
p1495
VPrinceton Weekly 5
p1496
sVloser
p1497
Vtongue
p1498
sa(dp1499
Vwinner
p1500
g459
sVevent
p1501
VPrinceton Weekly 5
p1502
sVloser
p1503
g686
sa(dp1504
Vwinner
p1505
g19
sVevent
p1506
VPrinceton Weekly 5
p1507
sVloser
p1508
g369
sa(dp1509
Vwinner
p1510
g1317
sVevent
p1511
VPrinceton Weekly 5
p1512
sVloser
p1513
VCF
p1514
sa(dp1515
Vwinner
p1516
VPCwiz
p1517
sVevent
p1518
VPrinceton Weekly 5
p1519
sVloser
p1520
VYCJ
p1521
sa(dp1522
Vwinner
p1523
VKosa
p1524
sVevent
p1525
VPrinceton Weekly 5
p1526
sVloser
p1527
g33
sa(dp1528
Vwinner
p1529
g459
sVevent
p1530
VPrinceton Weekly 5
p1531
sVloser
p1532
g68
sa(dp1533
Vwinner
p1534
g19
sVevent
p1535
VPrinceton Weekly 5
p1536
sVloser
p1537
g1317
sa(dp1538
Vwinner
p1539
g58
sVevent
p1540
VPrinceton Weekly 5
p1541
sVloser
p1542
VPCwiz
p1543
sa(dp1544
Vwinner
p1545
g96
sVevent
p1546
VPrinceton Weekly 5
p1547
sVloser
p1548
VKosa
p1549
sa(dp1550
Vwinner
p1551
g452
sVevent
p1552
VPrinceton Weekly 5
p1553
sVloser
p1554
g459
sa(dp1555
Vwinner
p1556
g19
sVevent
p1557
VPrinceton Weekly 5
p1558
sVloser
p1559
g733
sa(dp1560
Vwinner
p1561
g96
sVevent
p1562
VPrinceton Weekly 5
p1563
sVloser
p1564
g58
sa(dp1565
Vwinner
p1566
g19
sVevent
p1567
VPrinceton Weekly 5
p1568
sVloser
p1569
g452
sa(dp1570
Vwinner
p1571
g96
sVevent
p1572
VPrinceton Weekly 5
p1573
sVloser
p1574
g40
sa(dp1575
Vwinner
p1576
g61
sVevent
p1577
VPrinceton Weekly 5
p1578
sVloser
p1579
g19
sa(dp1580
Vwinner
p1581
g96
sVevent
p1582
VPrinceton Weekly 5
p1583
sVloser
p1584
g61
sa(dp1585
Vwinner
p1586
g96
sVevent
p1587
VPrinceton Weekly 5
p1588
sVloser
p1589
g409
sa(dp1590
Vwinner
p1591
VArias
p1592
sVevent
p1593
VPrinceton Weekly 6
p1594
sVloser
p1595
g369
sa(dp1596
Vwinner
p1597
VPei
p1598
sVevent
p1599
VPrinceton Weekly 6
p1600
sVloser
p1601
g9
sa(dp1602
Vwinner
p1603
VMaster Beef
p1604
sVevent
p1605
VPrinceton Weekly 6
p1606
sVloser
p1607
g75
sa(dp1608
Vwinner
p1609
VMars
p1610
sVevent
p1611
VPrinceton Weekly 6
p1612
sVloser
p1613
g1051
sa(dp1614
Vwinner
p1615
g365
sVevent
p1616
VPrinceton Weekly 6
p1617
sVloser
p1618
VCap Fabulous
p1619
sa(dp1620
Vwinner
p1621
g730
sVevent
p1622
VPrinceton Weekly 6
p1623
sVloser
p1624
VMr. Clean
p1625
sa(dp1626
Vwinner
p1627
g733
sVevent
p1628
VPrinceton Weekly 6
p1629
sVloser
p1630
VBUTTplunder
p1631
sa(dp1632
Vwinner
p1633
VKofi
p1634
sVevent
p1635
VPrinceton Weekly 6
p1636
sVloser
p1637
VCrowley
p1638
sa(dp1639
Vwinner
p1640
VImmersion
p1641
sVevent
p1642
VPrinceton Weekly 6
p1643
sVloser
p1644
VOasis
p1645
sa(dp1646
Vwinner
p1647
g1317
sVevent
p1648
VPrinceton Weekly 6
p1649
sVloser
p1650
VG/off
p1651
sa(dp1652
Vwinner
p1653
g96
sVevent
p1654
VPrinceton Weekly 6
p1655
sVloser
p1656
VArias
p1657
sa(dp1658
Vwinner
p1659
VPei
p1660
sVevent
p1661
VPrinceton Weekly 6
p1662
sVloser
p1663
VMaster Beef
p1664
sa(dp1665
Vwinner
p1666
g409
sVevent
p1667
VPrinceton Weekly 6
p1668
sVloser
p1669
VMars
p1670
sa(dp1671
Vwinner
p1672
VEmanon
p1673
sVevent
p1674
VPrinceton Weekly 6
p1675
sVloser
p1676
g365
sa(dp1677
Vwinner
p1678
g452
sVevent
p1679
VPrinceton Weekly 6
p1680
sVloser
p1681
g730
sa(dp1682
Vwinner
p1683
VKofi
p1684
sVevent
p1685
VPrinceton Weekly 6
p1686
sVloser
p1687
g733
sa(dp1688
Vwinner
p1689
VInternet Explorer
p1690
sVevent
p1691
VPrinceton Weekly 6
p1692
sVloser
p1693
VImmersion
p1694
sa(dp1695
Vwinner
p1696
g1317
sVevent
p1697
VPrinceton Weekly 6
p1698
sVloser
p1699
g19
sa(dp1700
Vwinner
p1701
g96
sVevent
p1702
VPrinceton Weekly 6
p1703
sVloser
p1704
VPei
p1705
sa(dp1706
Vwinner
p1707
g409
sVevent
p1708
VPrinceton Weekly 6
p1709
sVloser
p1710
VEmanon
p1711
sa(dp1712
Vwinner
p1713
g452
sVevent
p1714
VPrinceton Weekly 6
p1715
sVloser
p1716
VKofi
p1717
sa(dp1718
Vwinner
p1719
VInternet Explorer
p1720
sVevent
p1721
VPrinceton Weekly 6
p1722
sVloser
p1723
g1317
sa(dp1724
Vwinner
p1725
g96
sVevent
p1726
VPrinceton Weekly 6
p1727
sVloser
p1728
g409
sa(dp1729
Vwinner
p1730
VInternet Explorer
p1731
sVevent
p1732
VPrinceton Weekly 6
p1733
sVloser
p1734
g452
sa(dp1735
Vwinner
p1736
g96
sVevent
p1737
VPrinceton Weekly 6
p1738
sVloser
p1739
VInternet Explorer
p1740
sa(dp1741
Vwinner
p1742
g96
sVevent
p1743
VPrinceton Weekly 6
p1744
sVloser
p1745
VInternet Explorer
p1746
sa(dp1747
Vwinner
p1748
g9
sVevent
p1749
VPrinceton Weekly 6
p1750
sVloser
p1751
g75
sa(dp1752
Vwinner
p1753
VBUTTplunder
p1754
sVevent
p1755
VPrinceton Weekly 6
p1756
sVloser
p1757
VCrowley
p1758
sa(dp1759
Vwinner
p1760
g19
sVevent
p1761
VPrinceton Weekly 6
p1762
sVloser
p1763
g369
sa(dp1764
Vwinner
p1765
g9
sVevent
p1766
VPrinceton Weekly 6
p1767
sVloser
p1768
VImmersion
p1769
sa(dp1770
Vwinner
p1771
g733
sVevent
p1772
VPrinceton Weekly 6
p1773
sVloser
p1774
g1051
sa(dp1775
Vwinner
p1776
g730
sVevent
p1777
VPrinceton Weekly 6
p1778
sVloser
p1779
VCap Fabulous
p1780
sa(dp1781
Vwinner
p1782
g365
sVevent
p1783
VPrinceton Weekly 6
p1784
sVloser
p1785
VMr. Clean
p1786
sa(dp1787
Vwinner
p1788
VMars
p1789
sVevent
p1790
VPrinceton Weekly 6
p1791
sVloser
p1792
VBUTTplunder
p1793
sa(dp1794
Vwinner
p1795
VMaster Beef
p1796
sVevent
p1797
VPrinceton Weekly 6
p1798
sVloser
p1799
g1645
sa(dp1800
Vwinner
p1801
VArias
p1802
sVevent
p1803
VPrinceton Weekly 6
p1804
sVloser
p1805
VG/off
p1806
sa(dp1807
Vwinner
p1808
g19
sVevent
p1809
VPrinceton Weekly 6
p1810
sVloser
p1811
g9
sa(dp1812
Vwinner
p1813
g733
sVevent
p1814
VPrinceton Weekly 6
p1815
sVloser
p1816
g730
sa(dp1817
Vwinner
p1818
VMars
p1819
sVevent
p1820
VPrinceton Weekly 6
p1821
sVloser
p1822
g365
sa(dp1823
Vwinner
p1824
VMaster Beef
p1825
sVevent
p1826
VPrinceton Weekly 6
p1827
sVloser
p1828
VArias
p1829
sa(dp1830
Vwinner
p1831
g19
sVevent
p1832
VPrinceton Weekly 6
p1833
sVloser
p1834
VEmanon
p1835
sa(dp1836
Vwinner
p1837
VPei
p1838
sVevent
p1839
VPrinceton Weekly 6
p1840
sVloser
p1841
g733
sa(dp1842
Vwinner
p1843
g1317
sVevent
p1844
VPrinceton Weekly 6
p1845
sVloser
p1846
VMars
p1847
sa(dp1848
Vwinner
p1849
VKofi
p1850
sVevent
p1851
VPrinceton Weekly 6
p1852
sVloser
p1853
VMaster Beef
p1854
sa(dp1855
Vwinner
p1856
VPei
p1857
sVevent
p1858
VPrinceton Weekly 6
p1859
sVloser
p1860
g19
sa(dp1861
Vwinner
p1862
g1317
sVevent
p1863
VPrinceton Weekly 6
p1864
sVloser
p1865
VKofi
p1866
sa(dp1867
Vwinner
p1868
VPei
p1869
sVevent
p1870
VPrinceton Weekly 6
p1871
sVloser
p1872
g452
sa(dp1873
Vwinner
p1874
g1317
sVevent
p1875
VPrinceton Weekly 6
p1876
sVloser
p1877
g409
sa(dp1878
Vwinner
p1879
VPei
p1880
sVevent
p1881
VPrinceton Weekly 6
p1882
sVloser
p1883
g1317
sa(dp1884
Vwinner
p1885
VInternet Explorer
p1886
sVevent
p1887
VPrinceton Weekly 6
p1888
sVloser
p1889
VPei
p1890
sa(dp1891
Vwinner
p1892
VThe Jedi
p1893
sVevent
p1894
VPrinceton Weekly 7
p1895
sVloser
p1896
VChristian
p1897
sa(dp1898
Vwinner
p1899
g1317
sVevent
p1900
VPrinceton Weekly 7
p1901
sVloser
p1902
VFailsaucemcgee
p1903
sa(dp1904
Vwinner
p1905
g365
sVevent
p1906
VPrinceton Weekly 7
p1907
sVloser
p1908
VMang0
p1909
sa(dp1910
Vwinner
p1911
g730
sVevent
p1912
VPrinceton Weekly 7
p1913
sVloser
p1914
VAD
p1915
sa(dp1916
Vwinner
p1917
VJoe
p1918
sVevent
p1919
VPrinceton Weekly 7
p1920
sVloser
p1921
g369
sa(dp1922
Vwinner
p1923
VKosa
p1924
sVevent
p1925
VPrinceton Weekly 7
p1926
sVloser
p1927
VSir Fredrick
p1928
sa(dp1929
Vwinner
p1930
VVestboy_Myst
p1931
sVevent
p1932
VPrinceton Weekly 7
p1933
sVloser
p1934
VAJ
p1935
sa(dp1936
Vwinner
p1937
VKofi
p1938
sVevent
p1939
VPrinceton Weekly 7
p1940
sVloser
p1941
VNipples
p1942
sa(dp1943
Vwinner
p1944
g96
sVevent
p1945
VPrinceton Weekly 7
p1946
sVloser
p1947
VThe Jedi
p1948
sa(dp1949
Vwinner
p1950
VOverflow
p1951
sVevent
p1952
VPrinceton Weekly 7
p1953
sVloser
p1954
g1317
sa(dp1955
Vwinner
p1956
VPei
p1957
sVevent
p1958
VPrinceton Weekly 7
p1959
sVloser
p1960
g365
sa(dp1961
Vwinner
p1962
g61
sVevent
p1963
VPrinceton Weekly 7
p1964
sVloser
p1965
g730
sa(dp1966
Vwinner
p1967
g1112
sVevent
p1968
VPrinceton Weekly 7
p1969
sVloser
p1970
VJoe
p1971
sa(dp1972
Vwinner
p1973
g19
sVevent
p1974
VPrinceton Weekly 7
p1975
sVloser
p1976
VKosa
p1977
sa(dp1978
Vwinner
p1979
VInternet Explorer
p1980
sVevent
p1981
VPrinceton Weekly 7
p1982
sVloser
p1983
g1931
sa(dp1984
Vwinner
p1985
VSwedish Delight
p1986
sVevent
p1987
VPrinceton Weekly 7
p1988
sVloser
p1989
VKofi
p1990
sa(dp1991
Vwinner
p1992
g96
sVevent
p1993
VPrinceton Weekly 7
p1994
sVloser
p1995
VOverflow
p1996
sa(dp1997
Vwinner
p1998
g61
sVevent
p1999
VPrinceton Weekly 7
p2000
sVloser
p2001
VPei
p2002
sa(dp2003
Vwinner
p2004
g1112
sVevent
p2005
VPrinceton Weekly 7
p2006
sVloser
p2007
g19
sa(dp2008
Vwinner
p2009
VInternet Explorer
p2010
sVevent
p2011
VPrinceton Weekly 7
p2012
sVloser
p2013
g1986
sa(dp2014
Vwinner
p2015
g96
sVevent
p2016
VPrinceton Weekly 7
p2017
sVloser
p2018
g61
sa(dp2019
Vwinner
p2020
g1112
sVevent
p2021
VPrinceton Weekly 7
p2022
sVloser
p2023
VInternet Explorer
p2024
sa(dp2025
Vwinner
p2026
g96
sVevent
p2027
VPrinceton Weekly 7
p2028
sVloser
p2029
g1112
sa(dp2030
Vwinner
p2031
g1986
sVevent
p2032
VPrinceton Weekly 7
p2033
sVloser
p2034
g96
sa(dp2035
Vwinner
p2036
g1986
sVevent
p2037
VPrinceton Weekly 7
p2038
sVloser
p2039
g96
sa(dp2040
Vwinner
p2041
VKofi
p2042
sVevent
p2043
VPrinceton Weekly 7
p2044
sVloser
p2045
VChristian
p2046
sa(dp2047
Vwinner
p2048
g1931
sVevent
p2049
VPrinceton Weekly 7
p2050
sVloser
p2051
VFailsaucemcgee
p2052
sa(dp2053
Vwinner
p2054
VKosa
p2055
sVevent
p2056
VPrinceton Weekly 7
p2057
sVloser
p2058
VMang0
p2059
sa(dp2060
Vwinner
p2061
VJoe
p2062
sVevent
p2063
VPrinceton Weekly 7
p2064
sVloser
p2065
VAD
p2066
sa(dp2067
Vwinner
p2068
g730
sVevent
p2069
VPrinceton Weekly 7
p2070
sVloser
p2071
g369
sa(dp2072
Vwinner
p2073
VSir Fredrick
p2074
sVevent
p2075
VPrinceton Weekly 7
p2076
sVloser
p2077
g365
sa(dp2078
Vwinner
p2079
g1317
sVevent
p2080
VPrinceton Weekly 7
p2081
sVloser
p2082
VAJ
p2083
sa(dp2084
Vwinner
p2085
VThe Jedi
p2086
sVevent
p2087
VPrinceton Weekly 7
p2088
sVloser
p2089
VNipples
p2090
sa(dp2091
Vwinner
p2092
g1931
sVevent
p2093
VPrinceton Weekly 7
p2094
sVloser
p2095
VKofi
p2096
sa(dp2097
Vwinner
p2098
VKosa
p2099
sVevent
p2100
VPrinceton Weekly 7
p2101
sVloser
p2102
VJoe
p2103
sa(dp2104
Vwinner
p2105
g730
sVevent
p2106
VPrinceton Weekly 7
p2107
sVloser
p2108
VSir Fredrick
p2109
sa(dp2110
Vwinner
p2111
VThe Jedi
p2112
sVevent
p2113
VPrinceton Weekly 7
p2114
sVloser
p2115
g1317
sa(dp2116
Vwinner
p2117
VPei
p2118
sVevent
p2119
VPrinceton Weekly 7
p2120
sVloser
p2121
g1931
sa(dp2122
Vwinner
p2123
VOverflow
p2124
sVevent
p2125
VPrinceton Weekly 7
p2126
sVloser
p2127
VKosa
p2128
sa(dp2129
Vwinner
p2130
g1986
sVevent
p2131
VPrinceton Weekly 7
p2132
sVloser
p2133
g730
sa(dp2134
Vwinner
p2135
VThe Jedi
p2136
sVevent
p2137
VPrinceton Weekly 7
p2138
sVloser
p2139
g19
sa(dp2140
Vwinner
p2141
VOverflow
p2142
sVevent
p2143
VPrinceton Weekly 7
p2144
sVloser
p2145
VPei
p2146
sa(dp2147
Vwinner
p2148
g1986
sVevent
p2149
VPrinceton Weekly 7
p2150
sVloser
p2151
VThe Jedi
p2152
sa(dp2153
Vwinner
p2154
VInternet Explorer
p2155
sVevent
p2156
VPrinceton Weekly 7
p2157
sVloser
p2158
VOverflow
p2159
sa(dp2160
Vwinner
p2161
g1986
sVevent
p2162
VPrinceton Weekly 7
p2163
sVloser
p2164
g61
sa(dp2165
Vwinner
p2166
g1986
sVevent
p2167
VPrinceton Weekly 7
p2168
sVloser
p2169
VInternet Explorer
p2170
sa(dp2171
Vwinner
p2172
g1986
sVevent
p2173
VPrinceton Weekly 7
p2174
sVloser
p2175
g1112
sa(dp2176
Vwinner
p2177
VChristian
p2178
sVevent
p2179
VPrinceton Weekly 8
p2180
sVloser
p2181
V8
p2182
sa(dp2183
Vwinner
p2184
g1030
sVevent
p2185
VPrinceton Weekly 8
p2186
sVloser
p2187
VLum
p2188
sa(dp2189
Vwinner
p2190
VFailsaucemcgee
p2191
sVevent
p2192
VPrinceton Weekly 8
p2193
sVloser
p2194
VGameb0ybryan
p2195
sa(dp2196
Vwinner
p2197
VNipples
p2198
sVevent
p2199
VPrinceton Weekly 8
p2200
sVloser
p2201
VAJ
p2202
sa(dp2203
Vwinner
p2204
g1645
sVevent
p2205
VPrinceton Weekly 8
p2206
sVloser
p2207
VMogul
p2208
sa(dp2209
Vwinner
p2210
g96
sVevent
p2211
VPrinceton Weekly 8
p2212
sVloser
p2213
VChristian
p2214
sa(dp2215
Vwinner
p2216
g733
sVevent
p2217
VPrinceton Weekly 8
p2218
sVloser
p2219
VKosa
p2220
sa(dp2221
Vwinner
p2222
VInternet Explorer
p2223
sVevent
p2224
VPrinceton Weekly 8
p2225
sVloser
p2226
g1030
sa(dp2227
Vwinner
p2228
g61
sVevent
p2229
VPrinceton Weekly 8
p2230
sVloser
p2231
VFailsaucemcgee
p2232
sa(dp2233
Vwinner
p2234
VEggm
p2235
sVevent
p2236
VPrinceton Weekly 8
p2237
sVloser
p2238
VNipples
p2239
sa(dp2240
Vwinner
p2241
g19
sVevent
p2242
VPrinceton Weekly 8
p2243
sVloser
p2244
g730
sa(dp2245
Vwinner
p2246
g1112
sVevent
p2247
VPrinceton Weekly 8
p2248
sVloser
p2249
g1645
sa(dp2250
Vwinner
p2251
VEmanon
p2252
sVevent
p2253
VPrinceton Weekly 8
p2254
sVloser
p2255
g365
sa(dp2256
Vwinner
p2257
g96
sVevent
p2258
VPrinceton Weekly 8
p2259
sVloser
p2260
g733
sa(dp2261
Vwinner
p2262
VInternet Explorer
p2263
sVevent
p2264
VPrinceton Weekly 8
p2265
sVloser
p2266
g61
sa(dp2267
Vwinner
p2268
VEggm
p2269
sVevent
p2270
VPrinceton Weekly 8
p2271
sVloser
p2272
g19
sa(dp2273
Vwinner
p2274
g1112
sVevent
p2275
VPrinceton Weekly 8
p2276
sVloser
p2277
VEmanon
p2278
sa(dp2279
Vwinner
p2280
g96
sVevent
p2281
VPrinceton Weekly 8
p2282
sVloser
p2283
VInternet Explorer
p2284
sa(dp2285
Vwinner
p2286
VEggm
p2287
sVevent
p2288
VPrinceton Weekly 8
p2289
sVloser
p2290
g1112
sa(dp2291
Vwinner
p2292
VEggm
p2293
sVevent
p2294
VPrinceton Weekly 8
p2295
sVloser
p2296
g96
sa(dp2297
Vwinner
p2298
VEggm
p2299
sVevent
p2300
VPrinceton Weekly 8
p2301
sVloser
p2302
g96
sa(dp2303
Vwinner
p2304
V8
p2305
sVevent
p2306
VPrinceton Weekly 8
p2307
sVloser
p2308
g365
sa(dp2309
Vwinner
p2310
g730
sVevent
p2311
VPrinceton Weekly 8
p2312
sVloser
p2313
VLum
p2314
sa(dp2315
Vwinner
p2316
VNipples
p2317
sVevent
p2318
VPrinceton Weekly 8
p2319
sVloser
p2320
VGameb0ybryan
p2321
sa(dp2322
Vwinner
p2323
VFailsaucemcgee
p2324
sVevent
p2325
VPrinceton Weekly 8
p2326
sVloser
p2327
VAJ
p2328
sa(dp2329
Vwinner
p2330
VKosa
p2331
sVevent
p2332
VPrinceton Weekly 8
p2333
sVloser
p2334
VMogul
p2335
sa(dp2336
Vwinner
p2337
g1645
sVevent
p2338
VPrinceton Weekly 8
p2339
sVloser
p2340
V8
p2341
sa(dp2342
Vwinner
p2343
g730
sVevent
p2344
VPrinceton Weekly 8
p2345
sVloser
p2346
VNipples
p2347
sa(dp2348
Vwinner
p2349
g1030
sVevent
p2350
VPrinceton Weekly 8
p2351
sVloser
p2352
VFailsaucemcgee
p2353
sa(dp2354
Vwinner
p2355
VKosa
p2356
sVevent
p2357
VPrinceton Weekly 8
p2358
sVloser
p2359
VChristian
p2360
sa(dp2361
Vwinner
p2362
g61
sVevent
p2363
VPrinceton Weekly 8
p2364
sVloser
p2365
g1645
sa(dp2366
Vwinner
p2367
g733
sVevent
p2368
VPrinceton Weekly 8
p2369
sVloser
p2370
g730
sa(dp2371
Vwinner
p2372
VEmanon
p2373
sVevent
p2374
VPrinceton Weekly 8
p2375
sVloser
p2376
g1030
sa(dp2377
Vwinner
p2378
g19
sVevent
p2379
VPrinceton Weekly 8
p2380
sVloser
p2381
VKosa
p2382
sa(dp2383
Vwinner
p2384
g61
sVevent
p2385
VPrinceton Weekly 8
p2386
sVloser
p2387
g733
sa(dp2388
Vwinner
p2389
g19
sVevent
p2390
VPrinceton Weekly 8
p2391
sVloser
p2392
VEmanon
p2393
sa(dp2394
Vwinner
p2395
g1112
sVevent
p2396
VPrinceton Weekly 8
p2397
sVloser
p2398
g61
sa(dp2399
Vwinner
p2400
VInternet Explorer
p2401
sVevent
p2402
VPrinceton Weekly 8
p2403
sVloser
p2404
g19
sa(dp2405
Vwinner
p2406
VInternet Explorer
p2407
sVevent
p2408
VPrinceton Weekly 8
p2409
sVloser
p2410
g1112
sa(dp2411
Vwinner
p2412
g96
sVevent
p2413
VPrinceton Weekly 8
p2414
sVloser
p2415
VInternet Explorer
p2416
sa(dp2417
Vwinner
p2418
VChristian
p2419
sVevent
p2420
VJersey Japes 1
p2421
sVloser
p2422
VAJ
p2423
sa(dp2424
Vwinner
p2425
g33
sVevent
p2426
VJersey Japes 1
p2427
sVloser
p2428
VJust the Tip
p2429
sa(dp2430
Vwinner
p2431
g730
sVevent
p2432
VJersey Japes 1
p2433
sVloser
p2434
VBuu
p2435
sa(dp2436
Vwinner
p2437
VFailsaucemcgee
p2438
sVevent
p2439
VJersey Japes 1
p2440
sVloser
p2441
g369
sa(dp2442
Vwinner
p2443
VNipples
p2444
sVevent
p2445
VJersey Japes 1
p2446
sVloser
p2447
VRhyme
p2448
sa(dp2449
Vwinner
p2450
g1986
sVevent
p2451
VJersey Japes 1
p2452
sVloser
p2453
VChristian
p2454
sa(dp2455
Vwinner
p2456
g61
sVevent
p2457
VJersey Japes 1
p2458
sVloser
p2459
g19
sa(dp2460
Vwinner
p2461
g96
sVevent
p2462
VJersey Japes 1
p2463
sVloser
p2464
g33
sa(dp2465
Vwinner
p2466
VPlank
p2467
sVevent
p2468
VJersey Japes 1
p2469
sVloser
p2470
g730
sa(dp2471
Vwinner
p2472
VEggm
p2473
sVevent
p2474
VJersey Japes 1
p2475
sVloser
p2476
VFailsaucemcgee
p2477
sa(dp2478
Vwinner
p2479
g733
sVevent
p2480
VJersey Japes 1
p2481
sVloser
p2482
g1931
sa(dp2483
Vwinner
p2484
VDP
p2485
sVevent
p2486
VJersey Japes 1
p2487
sVloser
p2488
VNipples
p2489
sa(dp2490
Vwinner
p2491
VInternet Explorer
p2492
sVevent
p2493
VJersey Japes 1
p2494
sVloser
p2495
g409
sa(dp2496
Vwinner
p2497
g1986
sVevent
p2498
VJersey Japes 1
p2499
sVloser
p2500
g61
sa(dp2501
Vwinner
p2502
VPlank
p2503
sVevent
p2504
VJersey Japes 1
p2505
sVloser
p2506
g96
sa(dp2507
Vwinner
p2508
VEggm
p2509
sVevent
p2510
VJersey Japes 1
p2511
sVloser
p2512
g733
sa(dp2513
Vwinner
p2514
VDP
p2515
sVevent
p2516
VJersey Japes 1
p2517
sVloser
p2518
VInternet Explorer
p2519
sa(dp2520
Vwinner
p2521
g1986
sVevent
p2522
VJersey Japes 1
p2523
sVloser
p2524
VPlank
p2525
sa(dp2526
Vwinner
p2527
VDP
p2528
sVevent
p2529
VJersey Japes 1
p2530
sVloser
p2531
VEggm
p2532
sa(dp2533
Vwinner
p2534
VDP
p2535
sVevent
p2536
VJersey Japes 1
p2537
sVloser
p2538
g1986
sa(dp2539
Vwinner
p2540
VPlank
p2541
sVevent
p2542
VJersey Japes 1
p2543
sVloser
p2544
VDP
p2545
sa(dp2546
Vwinner
p2547
VPlank
p2548
sVevent
p2549
VJersey Japes 1
p2550
sVloser
p2551
VDP
p2552
sa(dp2553
Vwinner
p2554
g409
sVevent
p2555
VJersey Japes 1
p2556
sVloser
p2557
VAJ
p2558
sa(dp2559
Vwinner
p2560
g1931
sVevent
p2561
VJersey Japes 1
p2562
sVloser
p2563
VJust the Tip
p2564
sa(dp2565
Vwinner
p2566
VFailsaucemcgee
p2567
sVevent
p2568
VJersey Japes 1
p2569
sVloser
p2570
VBuu
p2571
sa(dp2572
Vwinner
p2573
g730
sVevent
p2574
VJersey Japes 1
p2575
sVloser
p2576
g369
sa(dp2577
Vwinner
p2578
g19
sVevent
p2579
VJersey Japes 1
p2580
sVloser
p2581
VRhyme
p2582
sa(dp2583
Vwinner
p2584
g409
sVevent
p2585
VJersey Japes 1
p2586
sVloser
p2587
VNipples
p2588
sa(dp2589
Vwinner
p2590
g1931
sVevent
p2591
VJersey Japes 1
p2592
sVloser
p2593
VFailsaucemcgee
p2594
sa(dp2595
Vwinner
p2596
g33
sVevent
p2597
VJersey Japes 1
p2598
sVloser
p2599
g730
sa(dp2600
Vwinner
p2601
g19
sVevent
p2602
VJersey Japes 1
p2603
sVloser
p2604
VChristian
p2605
sa(dp2606
Vwinner
p2607
g96
sVevent
p2608
VJersey Japes 1
p2609
sVloser
p2610
g409
sa(dp2611
Vwinner
p2612
g61
sVevent
p2613
VJersey Japes 1
p2614
sVloser
p2615
g1931
sa(dp2616
Vwinner
p2617
VInternet Explorer
p2618
sVevent
p2619
VJersey Japes 1
p2620
sVloser
p2621
g33
sa(dp2622
Vwinner
p2623
g733
sVevent
p2624
VJersey Japes 1
p2625
sVloser
p2626
g19
sa(dp2627
Vwinner
p2628
g96
sVevent
p2629
VJersey Japes 1
p2630
sVloser
p2631
g61
sa(dp2632
Vwinner
p2633
VInternet Explorer
p2634
sVevent
p2635
VJersey Japes 1
p2636
sVloser
p2637
g733
sa(dp2638
Vwinner
p2639
g96
sVevent
p2640
VJersey Japes 1
p2641
sVloser
p2642
VEggm
p2643
sa(dp2644
Vwinner
p2645
VPlank
p2646
sVevent
p2647
VJersey Japes 1
p2648
sVloser
p2649
VInternet Explorer
p2650
sa(dp2651
Vwinner
p2652
VPlank
p2653
sVevent
p2654
VJersey Japes 1
p2655
sVloser
p2656
g96
sa(dp2657
Vwinner
p2658
VPlank
p2659
sVevent
p2660
VJersey Japes 1
p2661
sVloser
p2662
g1986
sasS'players'
p2663
(lp2664
g93
ag1915
ag86
ag1935
ag1112
ag396
ag737
ag711
ag58
ag705
ag1631
ag2435
ag96
ag733
ag1619
ag375
ag1897
ag79
ag1401
ag1638
ag1326
ag1037
ag452
ag427
ag82
ag699
ag2485
ag1065
ag1030
ag2235
ag12
ag40
ag730
ag1903
ag1026
ag433
ag1651
ag2195
ag1023
ag1317
ag400
ag121
ag749
ag1690
ag44
ag72
ag365
ag390
ag1918
ag2429
ag16
ag30
ag47
ag384
ag26
ag406
ag2188
ag1909
ag692
ag1604
ag695
ag75
ag2208
ag743
ag413
ag33
ag1942
ag61
ag1645
ag420
ag133
ag1363
ag755
ag1598
ag2467
ag54
ag2448
ag686
ag65
ag1928
ag459
ag37
ag89
ag1986
ag1357
ag1044
ag51
ag1893
ag19
ag1348
ag793
ag409
ag1051
ag23
ag1931
ag369
ag1332
ag68
ag9
ag5
as.