(dp0
Vmkolpnji
p1
(lp2
ccollections
OrderedDict
p3
((lp4
(lp5
S'winner'
p6
ag1
aa(lp7
S'loser'
p8
aVTheftz
p9
aa(lp10
S'event'
p11
aVPrinceton Weekly 4
p12
aatp13
Rp14
ag3
((lp15
(lp16
g6
ag9
aa(lp17
g8
aVTweek
p18
aa(lp19
g11
aVPrinceton Weekly 2
p20
aatp21
Rp22
ag3
((lp23
(lp24
g6
aVTweek
p25
aa(lp26
g8
aVC!Z
p27
aa(lp28
g11
aVPrinceton Weekly 5
p29
aatp30
Rp31
asVTS I Lord Knight
p32
(lp33
g3
((lp34
(lp35
g6
ag32
aa(lp36
g8
aVNJzFinest
p37
aa(lp38
g11
aVPrinceton Weekly 3
p39
aatp40
Rp41
ag3
((lp42
(lp43
g6
aVNJzFinest
p44
aa(lp45
g8
ag9
aa(lp46
g11
ag29
aatp47
Rp48
ag22
ag31
asVIcer
p49
(lp50
g3
((lp51
(lp52
g6
ag49
aa(lp53
g8
aVTweek
p54
aa(lp55
g11
ag12
aatp56
Rp57
ag31
asVBigFoig
p58
(lp59
g3
((lp60
(lp61
g6
ag58
aa(lp62
g8
aVSmelly Cat
p63
aa(lp64
g11
ag29
aatp65
Rp66
ag3
((lp67
(lp68
g6
ag63
aa(lp69
g8
ag9
aa(lp70
g11
ag20
aatp71
Rp72
ag22
ag31
asg25
(lp73
g31
asS'C!Z'
p74
(lp75
sg9
(lp76
g22
ag31
asVKmac
p77
(lp78
g3
((lp79
(lp80
g6
ag77
aa(lp81
g8
ag58
aa(lp82
g11
aVPrinceton Weekly 1
p83
aatp84
Rp85
ag66
ag72
ag22
ag31
asVDestructicon
p86
(lp87
g3
((lp88
(lp89
g6
ag86
aa(lp90
g8
aVPyro
p91
aa(lp92
g11
ag83
aatp93
Rp94
ag3
((lp95
(lp96
g6
aVPyro
p97
aa(lp98
g8
ag9
aa(lp99
g11
ag83
aatp100
Rp101
ag22
ag31
asVEmanon
p102
(lp103
g3
((lp104
(lp105
g6
ag102
aa(lp106
g8
aVTweek
p107
aa(lp108
g11
ag20
aatp109
Rp110
ag31
asVNation
p111
(lp112
g3
((lp113
(lp114
g6
ag111
aa(lp115
g8
aVKosa
p116
aa(lp117
g11
ag83
aatp118
Rp119
ag3
((lp120
(lp121
g6
ag116
aa(lp122
g8
ag1
aa(lp123
g11
ag20
aatp124
Rp125
ag14
ag22
ag31
asVZealous
p126
(lp127
g3
((lp128
(lp129
g6
ag126
aa(lp130
g8
aVYTG
p131
aa(lp132
g11
ag39
aatp133
Rp134
ag3
((lp135
(lp136
g6
ag131
aa(lp137
g8
ag1
aa(lp138
g11
ag39
aatp139
Rp140
ag14
ag22
ag31
asg44
(lp141
g48
ag22
ag31
asVEnV
p142
(lp143
g3
((lp144
(lp145
g6
ag142
aa(lp146
g8
aVEmanon
p147
aa(lp148
g11
ag12
aatp149
Rp150
ag110
ag31
asg63
(lp151
g72
ag22
ag31
asVOverflow
p152
(lp153
g3
((lp154
(lp155
g6
ag152
aa(lp156
g8
aVCall Me Mars
p157
aa(lp158
g11
ag12
aatp159
Rp160
ag3
((lp161
(lp162
g6
ag157
aa(lp163
g8
aVTweek
p164
aa(lp165
g11
ag39
aatp166
Rp167
ag31
asg157
(lp168
g167
ag31
asVJavier
p169
(lp170
g3
((lp171
(lp172
g6
ag169
aa(lp173
g8
ag9
aa(lp174
g11
ag20
aatp175
Rp176
ag22
ag31
asVMGFC I Dekunut
p177
(lp178
g3
((lp179
(lp180
g6
ag177
aa(lp181
g8
ag142
aa(lp182
g11
ag39
aatp183
Rp184
ag150
ag110
ag31
asVKofi
p185
(lp186
g3
((lp187
(lp188
g6
ag185
aa(lp189
g8
ag111
aa(lp190
g11
ag20
aatp191
Rp192
ag119
ag125
ag14
ag22
ag31
asVCF
p193
(lp194
g3
((lp195
(lp196
g6
ag193
aa(lp197
g8
ag1
aa(lp198
g11
ag39
aatp199
Rp200
ag14
ag22
ag31
asg97
(lp201
g101
ag22
ag31
asVPeanutphobia
p202
(lp203
g3
((lp204
(lp205
g6
ag202
aa(lp206
g8
aVCF
p207
aa(lp208
g11
ag39
aatp209
Rp210
ag200
ag14
ag22
ag31
asg131
(lp211
g140
ag14
ag22
ag31
asVZodiac
p212
(lp213
g3
((lp214
(lp215
g6
ag212
aa(lp216
g8
aVEmanon
p217
aa(lp218
g11
ag83
aatp219
Rp220
ag110
ag31
asVDudeacockus
p221
(lp222
g3
((lp223
(lp224
g6
ag221
aa(lp225
g8
ag116
aa(lp226
g11
ag12
aatp227
Rp228
ag125
ag14
ag22
ag31
asVDaybreak
p229
(lp230
g3
((lp231
(lp232
g6
ag229
aa(lp233
g8
ag157
aa(lp234
g11
ag39
aatp235
Rp236
ag167
ag31
asVGreen Lantern
p237
(lp238
g3
((lp239
(lp240
g6
ag237
aa(lp241
g8
aVTweek
p242
aa(lp243
g11
ag29
aatp244
Rp245
ag31
asg116
(lp246
g125
ag14
ag22
ag31
asVSon2
p247
(lp248
g3
((lp249
(lp250
g6
ag247
aa(lp251
g8
ag49
aa(lp252
g11
ag83
aatp253
Rp254
ag57
ag31
asVAlex The God
p255
(lp256
g3
((lp257
(lp258
g6
ag255
aa(lp259
g8
ag63
aa(lp260
g11
ag12
aatp261
Rp262
ag72
ag22
ag31
as.