(dp0
VCopycat
p1
(dp2
S'wins'
p3
(lp4
(dp5
Vwinner
p6
g1
sVevent
p7
VPrinceton Weekly 5
p8
sVloser
p9
Vtalrane
p10
sa(dp11
Vwinner
p12
VCopycat
p13
sVevent
p14
VPrinceton Weekly 5
p15
sVloser
p16
VDaybreak
p17
sa(dp18
Vwinner
p19
VCopycat
p20
sVevent
p21
VPrinceton Weekly 5
p22
sVloser
p23
VEnV
p24
sa(dp25
Vwinner
p26
VCopycat
p27
sVevent
p28
VPrinceton Weekly 5
p29
sVloser
p30
VTweek
p31
sasS'losses'
p32
(lp33
(dp34
Vwinner
p35
VC!Z
p36
sVevent
p37
VPrinceton Weekly 5
p38
sVloser
p39
VCopycat
p40
sa(dp41
Vwinner
p42
g36
sVevent
p43
VPrinceton Weekly 5
p44
sVloser
p45
VCopycat
p46
sassVG/off
p47
(dp48
g3
(lp49
sg32
(lp50
(dp51
Vwinner
p52
VHimes
p53
sVevent
p54
VPrinceton Weekly 6
p55
sVloser
p56
g47
sa(dp57
Vwinner
p58
VArias
p59
sVevent
p60
VPrinceton Weekly 6
p61
sVloser
p62
VG/off
p63
sassVBlank Dots
p64
(dp65
g3
(lp66
(dp67
Vwinner
p68
VBlank Dots
p69
sVevent
p70
VPrinceton Weekly 3
p71
sVloser
p72
VDougie Fresh
p73
sasg32
(lp74
(dp75
Vwinner
p76
VADVANCED
p77
sVevent
p78
VPrinceton Weekly 3
p79
sVloser
p80
g64
sa(dp81
Vwinner
p82
VCall Me Mars
p83
sVevent
p84
VPrinceton Weekly 3
p85
sVloser
p86
VBlank Dots
p87
sassVPCwiz
p88
(dp89
g3
(lp90
(dp91
Vwinner
p92
g88
sVevent
p93
VPrinceton Weekly 5
p94
sVloser
p95
VCF
p96
sa(dp97
Vwinner
p98
VPCwiz
p99
sVevent
p100
VPrinceton Weekly 5
p101
sVloser
p102
VJake From State Farm
p103
sa(dp104
Vwinner
p105
VPCwiz
p106
sVevent
p107
VPrinceton Weekly 5
p108
sVloser
p109
VYCJ
p110
sasg32
(lp111
(dp112
Vwinner
p113
g17
sVevent
p114
VPrinceton Weekly 5
p115
sVloser
p116
VPCwiz
p117
sa(dp118
Vwinner
p119
VBigFoig
p120
sVevent
p121
VPrinceton Weekly 5
p122
sVloser
p123
VPCwiz
p124
sassVJust the Tip
p125
(dp126
g3
(lp127
sg32
(lp128
(dp129
Vwinner
p130
VNation
p131
sVevent
p132
VJersey Japes 1
p133
sVloser
p134
g125
sa(dp135
Vwinner
p136
VVestboy_Myst
p137
sVevent
p138
VJersey Japes 1
p139
sVloser
p140
VJust the Tip
p141
sassVArias
p142
(dp143
g3
(lp144
(dp145
Vwinner
p146
g142
sVevent
p147
VPrinceton Weekly 2
p148
sVloser
p149
VI like rice
p150
sa(dp151
Vwinner
p152
VArias
p153
sVevent
p154
VPrinceton Weekly 6
p155
sVloser
p156
VWatson
p157
sag57
asg32
(lp158
(dp159
Vwinner
p160
VSmelly Cat
p161
sVevent
p162
VPrinceton Weekly 2
p163
sVloser
p164
VArias
p165
sa(dp166
Vwinner
p167
VZealous
p168
sVevent
p169
VPrinceton Weekly 2
p170
sVloser
p171
VArias
p172
sa(dp173
Vwinner
p174
g36
sVevent
p175
VPrinceton Weekly 6
p176
sVloser
p177
VArias
p178
sa(dp179
Vwinner
p180
VMaster Beef
p181
sVevent
p182
VPrinceton Weekly 6
p183
sVloser
p184
VArias
p185
sassg103
(dp186
g3
(lp187
(dp188
Vwinner
p189
g103
sVevent
p190
VPrinceton Weekly 2
p191
sVloser
p192
g157
sa(dp193
Vwinner
p194
g103
sVevent
p195
VPrinceton Weekly 2
p196
sVloser
p197
VFranjoe
p198
sa(dp199
Vwinner
p200
g103
sVevent
p201
VPrinceton Weekly 3
p202
sVloser
p203
VBDukes
p204
sa(dp205
Vwinner
p206
g103
sVevent
p207
VPrinceton Weekly 4
p208
sVloser
p209
VScrandino
p210
sa(dp211
Vwinner
p212
g103
sVevent
p213
VPrinceton Weekly 6
p214
sVloser
p215
VCap Fabulous
p216
sa(dp217
Vwinner
p218
g103
sVevent
p219
VPrinceton Weekly 6
p220
sVloser
p221
VMr. Clean
p222
sa(dp223
Vwinner
p224
g103
sVevent
p225
VPrinceton Weekly 7
p226
sVloser
p227
VMang0
p228
sasg32
(lp229
(dp230
Vwinner
p231
VIcer
p232
sVevent
p233
VPrinceton Weekly 2
p234
sVloser
p235
g103
sa(dp236
Vwinner
p237
VYTG
p238
sVevent
p239
VPrinceton Weekly 2
p240
sVloser
p241
g103
sa(dp242
Vwinner
p243
VKosa
p244
sVevent
p245
VPrinceton Weekly 3
p246
sVloser
p247
g103
sa(dp248
Vwinner
p249
VKofi
p250
sVevent
p251
VPrinceton Weekly 3
p252
sVloser
p253
g103
sa(dp254
Vwinner
p255
VKosa
p256
sVevent
p257
VPrinceton Weekly 4
p258
sVloser
p259
g103
sa(dp260
Vwinner
p261
Vmkolpnji
p262
sVevent
p263
VPrinceton Weekly 4
p264
sVloser
p265
g103
sa(dp266
Vwinner
p267
g53
sVevent
p268
VPrinceton Weekly 5
p269
sVloser
p270
g103
sag97
a(dp271
Vwinner
p272
VEmanon
p273
sVevent
p274
VPrinceton Weekly 6
p275
sVloser
p276
g103
sa(dp277
Vwinner
p278
VMars
p279
sVevent
p280
VPrinceton Weekly 6
p281
sVloser
p282
g103
sa(dp283
Vwinner
p284
VPei
p285
sVevent
p286
VPrinceton Weekly 7
p287
sVloser
p288
g103
sa(dp289
Vwinner
p290
VSir Fredrick
p291
sVevent
p292
VPrinceton Weekly 7
p293
sVloser
p294
g103
sa(dp295
Vwinner
p296
VEmanon
p297
sVevent
p298
VPrinceton Weekly 8
p299
sVloser
p300
g103
sa(dp301
Vwinner
p302
V8
p303
sVevent
p304
VPrinceton Weekly 8
p305
sVloser
p306
g103
sassVGameb0ybryan
p307
(dp308
g3
(lp309
sg32
(lp310
(dp311
Vwinner
p312
VFailsaucemcgee
p313
sVevent
p314
VPrinceton Weekly 8
p315
sVloser
p316
g307
sa(dp317
Vwinner
p318
VNipples
p319
sVevent
p320
VPrinceton Weekly 8
p321
sVloser
p322
VGameb0ybryan
p323
sassVDan
p324
(dp325
g3
(lp326
sg32
(lp327
(dp328
Vwinner
p329
VZodiac
p330
sVevent
p331
VPrinceton Weekly 4
p332
sVloser
p333
g324
sa(dp334
Vwinner
p335
VEmanon
p336
sVevent
p337
VPrinceton Weekly 4
p338
sVloser
p339
VDan
p340
sassVRhyme
p341
(dp342
g3
(lp343
sg32
(lp344
(dp345
Vwinner
p346
VNipples
p347
sVevent
p348
VJersey Japes 1
p349
sVloser
p350
g341
sa(dp351
Vwinner
p352
VTheftz
p353
sVevent
p354
VJersey Japes 1
p355
sVloser
p356
VRhyme
p357
sassVNJzFinest
p358
(dp359
g3
(lp360
(dp361
Vwinner
p362
g358
sVevent
p363
VPrinceton Weekly 1
p364
sVloser
p365
VScrandino
p366
sa(dp367
Vwinner
p368
g358
sVevent
p369
VPrinceton Weekly 1
p370
sVloser
p371
g238
sa(dp372
Vwinner
p373
g358
sVevent
p374
VPrinceton Weekly 1
p375
sVloser
p376
VZodiac
p377
sa(dp378
Vwinner
p379
g358
sVevent
p380
VPrinceton Weekly 2
p381
sVloser
p382
VKofi
p383
sa(dp384
Vwinner
p385
g358
sVevent
p386
VPrinceton Weekly 2
p387
sVloser
p388
g17
sa(dp389
Vwinner
p390
g358
sVevent
p391
VPrinceton Weekly 2
p392
sVloser
p393
VJavier
p394
sa(dp395
Vwinner
p396
g358
sVevent
p397
VPrinceton Weekly 2
p398
sVloser
p399
VEmanon
p400
sa(dp401
Vwinner
p402
g358
sVevent
p403
VPrinceton Weekly 3
p404
sVloser
p405
VImmersion
p406
sa(dp407
Vwinner
p408
g358
sVevent
p409
VPrinceton Weekly 3
p410
sVloser
p411
g238
sa(dp412
Vwinner
p413
g358
sVevent
p414
VPrinceton Weekly 3
p415
sVloser
p416
VKosa
p417
sa(dp418
Vwinner
p419
g358
sVevent
p420
VPrinceton Weekly 5
p421
sVloser
p422
g238
sa(dp423
Vwinner
p424
g358
sVevent
p425
VPrinceton Weekly 5
p426
sVloser
p427
g120
sa(dp428
Vwinner
p429
g358
sVevent
p430
VPrinceton Weekly 5
p431
sVloser
p432
g353
sa(dp433
Vwinner
p434
g358
sVevent
p435
VPrinceton Weekly 7
p436
sVloser
p437
VFable
p438
sa(dp439
Vwinner
p440
g358
sVevent
p441
VPrinceton Weekly 7
p442
sVloser
p443
VPei
p444
sa(dp445
Vwinner
p446
g358
sVevent
p447
VPrinceton Weekly 8
p448
sVloser
p449
VFailsaucemcgee
p450
sa(dp451
Vwinner
p452
g358
sVevent
p453
VPrinceton Weekly 8
p454
sVloser
p455
VOasis
p456
sa(dp457
Vwinner
p458
g358
sVevent
p459
VPrinceton Weekly 8
p460
sVloser
p461
g83
sa(dp462
Vwinner
p463
g358
sVevent
p464
VJersey Japes 1
p465
sVloser
p466
g353
sa(dp467
Vwinner
p468
g358
sVevent
p469
VJersey Japes 1
p470
sVloser
p471
g137
sasg32
(lp472
(dp473
Vwinner
p474
g232
sVevent
p475
VPrinceton Weekly 1
p476
sVloser
p477
g358
sa(dp478
Vwinner
p479
VSon2
p480
sVevent
p481
VPrinceton Weekly 1
p482
sVloser
p483
g358
sa(dp484
Vwinner
p485
g232
sVevent
p486
VPrinceton Weekly 2
p487
sVloser
p488
g358
sa(dp489
Vwinner
p490
g161
sVevent
p491
VPrinceton Weekly 2
p492
sVloser
p493
g358
sa(dp494
Vwinner
p495
VTS I Lord Knight
p496
sVevent
p497
VPrinceton Weekly 3
p498
sVloser
p499
g358
sa(dp500
Vwinner
p501
g232
sVevent
p502
VPrinceton Weekly 3
p503
sVloser
p504
g358
sa(dp505
Vwinner
p506
g31
sVevent
p507
VPrinceton Weekly 5
p508
sVloser
p509
g358
sa(dp510
Vwinner
p511
g36
sVevent
p512
VPrinceton Weekly 5
p513
sVloser
p514
g358
sa(dp515
Vwinner
p516
g36
sVevent
p517
VPrinceton Weekly 7
p518
sVloser
p519
g358
sa(dp520
Vwinner
p521
VSwedish Delight
p522
sVevent
p523
VPrinceton Weekly 7
p524
sVloser
p525
g358
sa(dp526
Vwinner
p527
VInternet Explorer
p528
sVevent
p529
VPrinceton Weekly 8
p530
sVloser
p531
g358
sa(dp532
Vwinner
p533
VAlex The God
p534
sVevent
p535
VPrinceton Weekly 8
p536
sVloser
p537
g358
sa(dp538
Vwinner
p539
g522
sVevent
p540
VJersey Japes 1
p541
sVloser
p542
g358
sa(dp543
Vwinner
p544
g36
sVevent
p545
VJersey Japes 1
p546
sVloser
p547
g358
sassVEggm
p548
(dp549
g3
(lp550
(dp551
Vwinner
p552
g548
sVevent
p553
VPrinceton Weekly 8
p554
sVloser
p555
VNipples
p556
sa(dp557
Vwinner
p558
VEggm
p559
sVevent
p560
VPrinceton Weekly 8
p561
sVloser
p562
g353
sa(dp563
Vwinner
p564
VEggm
p565
sVevent
p566
VPrinceton Weekly 8
p567
sVloser
p568
g534
sa(dp569
Vwinner
p570
VEggm
p571
sVevent
p572
VPrinceton Weekly 8
p573
sVloser
p574
g36
sa(dp575
Vwinner
p576
VEggm
p577
sVevent
p578
VPrinceton Weekly 8
p579
sVloser
p580
g36
sa(dp581
Vwinner
p582
VEggm
p583
sVevent
p584
VJersey Japes 1
p585
sVloser
p586
VFailsaucemcgee
p587
sa(dp588
Vwinner
p589
VEggm
p590
sVevent
p591
VJersey Japes 1
p592
sVloser
p593
g83
sasg32
(lp594
(dp595
Vwinner
p596
VDP
p597
sVevent
p598
VJersey Japes 1
p599
sVloser
p600
VEggm
p601
sa(dp602
Vwinner
p603
g36
sVevent
p604
VJersey Japes 1
p605
sVloser
p606
VEggm
p607
sassV8
p608
(dp609
g3
(lp610
g301
asg32
(lp611
(dp612
Vwinner
p613
VSon2
p614
sVevent
p615
VPrinceton Weekly 1
p616
sVloser
p617
g608
sa(dp618
Vwinner
p619
g77
sVevent
p620
VPrinceton Weekly 1
p621
sVloser
p622
V8
p623
sa(dp624
Vwinner
p625
g238
sVevent
p626
VPrinceton Weekly 2
p627
sVloser
p628
V8
p629
sa(dp630
Vwinner
p631
VCF
p632
sVevent
p633
VPrinceton Weekly 2
p634
sVloser
p635
V8
p636
sa(dp637
Vwinner
p638
VChristian
p639
sVevent
p640
VPrinceton Weekly 8
p641
sVloser
p642
V8
p643
sa(dp644
Vwinner
p645
g456
sVevent
p646
VPrinceton Weekly 8
p647
sVloser
p648
V8
p649
sassg150
(dp650
g3
(lp651
sg32
(lp652
g145
a(dp653
Vwinner
p654
VJavier
p655
sVevent
p656
VPrinceton Weekly 2
p657
sVloser
p658
VI like rice
p659
sassg83
(dp660
g3
(lp661
(dp662
Vwinner
p663
g83
sVevent
p664
VPrinceton Weekly 3
p665
sVloser
p666
VAzy
p667
sag81
a(dp668
Vwinner
p669
g83
sVevent
p670
VPrinceton Weekly 3
p671
sVloser
p672
VKofi
p673
sa(dp674
Vwinner
p675
g83
sVevent
p676
VPrinceton Weekly 3
p677
sVloser
p678
g31
sa(dp679
Vwinner
p680
g83
sVevent
p681
VPrinceton Weekly 4
p682
sVloser
p683
g438
sa(dp684
Vwinner
p685
g83
sVevent
p686
VPrinceton Weekly 4
p687
sVloser
p688
VEazyDI
p689
sa(dp690
Vwinner
p691
g83
sVevent
p692
VPrinceton Weekly 5
p693
sVloser
p694
VKosa
p695
sa(dp696
Vwinner
p697
g83
sVevent
p698
VPrinceton Weekly 6
p699
sVloser
p700
VBUTTplunder
p701
sa(dp702
Vwinner
p703
g83
sVevent
p704
VPrinceton Weekly 6
p705
sVloser
p706
VUltimate Raven
p707
sa(dp708
Vwinner
p709
g83
sVevent
p710
VPrinceton Weekly 6
p711
sVloser
p712
g438
sa(dp713
Vwinner
p714
g83
sVevent
p715
VPrinceton Weekly 8
p716
sVloser
p717
VKosa
p718
sa(dp719
Vwinner
p720
g83
sVevent
p721
VPrinceton Weekly 8
p722
sVloser
p723
g438
sa(dp724
Vwinner
p725
g83
sVevent
p726
VJersey Japes 1
p727
sVloser
p728
g137
sa(dp729
Vwinner
p730
g83
sVevent
p731
VJersey Japes 1
p732
sVloser
p733
g353
sasg32
(lp734
(dp735
Vwinner
p736
g17
sVevent
p737
VPrinceton Weekly 3
p738
sVloser
p739
g83
sa(dp740
Vwinner
p741
g24
sVevent
p742
VPrinceton Weekly 3
p743
sVloser
p744
g83
sa(dp745
Vwinner
p746
VOverflow
p747
sVevent
p748
VPrinceton Weekly 4
p749
sVloser
p750
g83
sa(dp751
Vwinner
p752
VEmanon
p753
sVevent
p754
VPrinceton Weekly 4
p755
sVloser
p756
g83
sa(dp757
Vwinner
p758
g24
sVevent
p759
VPrinceton Weekly 5
p760
sVloser
p761
g83
sa(dp762
Vwinner
p763
g353
sVevent
p764
VPrinceton Weekly 5
p765
sVloser
p766
g83
sa(dp767
Vwinner
p768
VKofi
p769
sVevent
p770
VPrinceton Weekly 6
p771
sVloser
p772
g83
sa(dp773
Vwinner
p774
VPei
p775
sVevent
p776
VPrinceton Weekly 6
p777
sVloser
p778
g83
sa(dp779
Vwinner
p780
g36
sVevent
p781
VPrinceton Weekly 8
p782
sVloser
p783
g83
sag457
ag588
a(dp784
Vwinner
p785
VInternet Explorer
p786
sVevent
p787
VJersey Japes 1
p788
sVloser
p789
g83
sassg707
(dp790
g3
(lp791
sg32
(lp792
(dp793
Vwinner
p794
VOverflow
p795
sVevent
p796
VPrinceton Weekly 4
p797
sVloser
p798
g707
sa(dp799
Vwinner
p800
g438
sVevent
p801
VPrinceton Weekly 4
p802
sVloser
p803
g707
sa(dp804
Vwinner
p805
VMars
p806
sVevent
p807
VPrinceton Weekly 6
p808
sVloser
p809
g707
sag702
assVKofi
p810
(dp811
g3
(lp812
(dp813
Vwinner
p814
g810
sVevent
p815
VPrinceton Weekly 2
p816
sVloser
p817
g131
sa(dp818
Vwinner
p819
VKofi
p820
sVevent
p821
VPrinceton Weekly 2
p822
sVloser
p823
VN2XX I Prison Mike
p824
sa(dp825
Vwinner
p826
VKofi
p827
sVevent
p828
VPrinceton Weekly 3
p829
sVloser
p830
VOPC
p831
sag248
a(dp832
Vwinner
p833
VKofi
p834
sVevent
p835
VPrinceton Weekly 6
p836
sVloser
p837
VCrowley
p838
sag767
a(dp839
Vwinner
p840
VKofi
p841
sVevent
p842
VPrinceton Weekly 6
p843
sVloser
p844
VMaster Beef
p845
sa(dp846
Vwinner
p847
VKofi
p848
sVevent
p849
VPrinceton Weekly 7
p850
sVloser
p851
VNipples
p852
sa(dp853
Vwinner
p854
VKofi
p855
sVevent
p856
VPrinceton Weekly 7
p857
sVloser
p858
VChristian
p859
sasg32
(lp860
g378
a(dp861
Vwinner
p862
VJavier
p863
sVevent
p864
VPrinceton Weekly 2
p865
sVloser
p866
VKofi
p867
sa(dp868
Vwinner
p869
g232
sVevent
p870
VPrinceton Weekly 3
p871
sVloser
p872
VKofi
p873
sag668
a(dp874
Vwinner
p875
g17
sVevent
p876
VPrinceton Weekly 6
p877
sVloser
p878
VKofi
p879
sa(dp880
Vwinner
p881
g53
sVevent
p882
VPrinceton Weekly 6
p883
sVloser
p884
VKofi
p885
sa(dp886
Vwinner
p887
g522
sVevent
p888
VPrinceton Weekly 7
p889
sVloser
p890
VKofi
p891
sa(dp892
Vwinner
p893
g137
sVevent
p894
VPrinceton Weekly 7
p895
sVloser
p896
VKofi
p897
sassg667
(dp898
g3
(lp899
(dp900
Vwinner
p901
VAzy
p902
sVevent
p903
VPrinceton Weekly 3
p904
sVloser
p905
g438
sa(dp906
Vwinner
p907
VAzy
p908
sVevent
p909
VPrinceton Weekly 3
p910
sVloser
p911
g77
sasg32
(lp912
g662
a(dp913
Vwinner
p914
VKosa
p915
sVevent
p916
VPrinceton Weekly 3
p917
sVloser
p918
VAzy
p919
sassg17
(dp920
g3
(lp921
(dp922
Vwinner
p923
g17
sVevent
p924
VPrinceton Weekly 2
p925
sVloser
p926
VJavier
p927
sa(dp928
Vwinner
p929
g17
sVevent
p930
VPrinceton Weekly 2
p931
sVloser
p932
VOverflow
p933
sa(dp934
Vwinner
p935
g17
sVevent
p936
VPrinceton Weekly 3
p937
sVloser
p938
g438
sag735
a(dp939
Vwinner
p940
g17
sVevent
p941
VPrinceton Weekly 3
p942
sVloser
p943
g232
sa(dp944
Vwinner
p945
g17
sVevent
p946
VPrinceton Weekly 3
p947
sVloser
p948
VTS I Lord Knight
p949
sa(dp950
Vwinner
p951
g17
sVevent
p952
VPrinceton Weekly 4
p953
sVloser
p954
VFlip
p955
sa(dp956
Vwinner
p957
g17
sVevent
p958
VPrinceton Weekly 4
p959
sVloser
p960
g24
sa(dp961
Vwinner
p962
g17
sVevent
p963
VPrinceton Weekly 4
p964
sVloser
p965
VOverflow
p966
sa(dp967
Vwinner
p968
g17
sVevent
p969
VPrinceton Weekly 4
p970
sVloser
p971
g161
sag112
a(dp972
Vwinner
p973
g17
sVevent
p974
VPrinceton Weekly 5
p975
sVloser
p976
g161
sa(dp977
Vwinner
p978
g17
sVevent
p979
VPrinceton Weekly 6
p980
sVloser
p981
g438
sag874
asg32
(lp982
g384
a(dp983
Vwinner
p984
g31
sVevent
p985
VPrinceton Weekly 2
p986
sVloser
p987
g17
sa(dp988
Vwinner
p989
g36
sVevent
p990
VPrinceton Weekly 3
p991
sVloser
p992
g17
sa(dp993
Vwinner
p994
g232
sVevent
p995
VPrinceton Weekly 3
p996
sVloser
p997
g17
sa(dp998
Vwinner
p999
g232
sVevent
p1000
VPrinceton Weekly 4
p1001
sVloser
p1002
g17
sa(dp1003
Vwinner
p1004
g534
sVevent
p1005
VPrinceton Weekly 4
p1006
sVloser
p1007
g17
sag11
a(dp1008
Vwinner
p1009
g353
sVevent
p1010
VPrinceton Weekly 5
p1011
sVloser
p1012
g17
sa(dp1013
Vwinner
p1014
VInternet Explorer
p1015
sVevent
p1016
VPrinceton Weekly 6
p1017
sVloser
p1018
g17
sa(dp1019
Vwinner
p1020
VPei
p1021
sVevent
p1022
VPrinceton Weekly 6
p1023
sVloser
p1024
g17
sassVVenz
p1025
(dp1026
g3
(lp1027
sg32
(lp1028
(dp1029
Vwinner
p1030
g353
sVevent
p1031
VPrinceton Weekly 1
p1032
sVloser
p1033
g1025
sa(dp1034
Vwinner
p1035
VJustin Wong
p1036
sVevent
p1037
VPrinceton Weekly 1
p1038
sVloser
p1039
VVenz
p1040
sassVMogul
p1041
(dp1042
g3
(lp1043
sg32
(lp1044
(dp1045
Vwinner
p1046
g456
sVevent
p1047
VPrinceton Weekly 8
p1048
sVloser
p1049
g1041
sa(dp1050
Vwinner
p1051
VKosa
p1052
sVevent
p1053
VPrinceton Weekly 8
p1054
sVloser
p1055
VMogul
p1056
sassVEmanon
p1057
(dp1058
g3
(lp1059
(dp1060
Vwinner
p1061
g1057
sVevent
p1062
VPrinceton Weekly 1
p1063
sVloser
p1064
VJustin Wong
p1065
sa(dp1066
Vwinner
p1067
VEmanon
p1068
sVevent
p1069
VPrinceton Weekly 1
p1070
sVloser
p1071
VColonel
p1072
sa(dp1073
Vwinner
p1074
VEmanon
p1075
sVevent
p1076
VPrinceton Weekly 2
p1077
sVloser
p1078
VOPC
p1079
sa(dp1080
Vwinner
p1081
VEmanon
p1082
sVevent
p1083
VPrinceton Weekly 2
p1084
sVloser
p1085
VOverflow
p1086
sa(dp1087
Vwinner
p1088
VEmanon
p1089
sVevent
p1090
VPrinceton Weekly 2
p1091
sVloser
p1092
VKosa
p1093
sa(dp1094
Vwinner
p1095
VEmanon
p1096
sVevent
p1097
VPrinceton Weekly 2
p1098
sVloser
p1099
g31
sa(dp1100
Vwinner
p1101
VEmanon
p1102
sVevent
p1103
VPrinceton Weekly 4
p1104
sVloser
p1105
VTeam
p1106
sag334
ag751
a(dp1107
Vwinner
p1108
VEmanon
p1109
sVevent
p1110
VPrinceton Weekly 4
p1111
sVloser
p1112
g31
sag271
ag295
a(dp1113
Vwinner
p1114
VEmanon
p1115
sVevent
p1116
VPrinceton Weekly 8
p1117
sVloser
p1118
g689
sasg32
(lp1119
(dp1120
Vwinner
p1121
g353
sVevent
p1122
VPrinceton Weekly 1
p1123
sVloser
p1124
VEmanon
p1125
sa(dp1126
Vwinner
p1127
VZodiac
p1128
sVevent
p1129
VPrinceton Weekly 1
p1130
sVloser
p1131
VEmanon
p1132
sa(dp1133
Vwinner
p1134
g161
sVevent
p1135
VPrinceton Weekly 2
p1136
sVloser
p1137
VEmanon
p1138
sag395
a(dp1139
Vwinner
p1140
g161
sVevent
p1141
VPrinceton Weekly 4
p1142
sVloser
p1143
VEmanon
p1144
sa(dp1145
Vwinner
p1146
g24
sVevent
p1147
VPrinceton Weekly 4
p1148
sVloser
p1149
VEmanon
p1150
sa(dp1151
Vwinner
p1152
g31
sVevent
p1153
VPrinceton Weekly 6
p1154
sVloser
p1155
VEmanon
p1156
sa(dp1157
Vwinner
p1158
g353
sVevent
p1159
VPrinceton Weekly 6
p1160
sVloser
p1161
VEmanon
p1162
sa(dp1163
Vwinner
p1164
g534
sVevent
p1165
VPrinceton Weekly 8
p1166
sVloser
p1167
VEmanon
p1168
sa(dp1169
Vwinner
p1170
g353
sVevent
p1171
VPrinceton Weekly 8
p1172
sVloser
p1173
VEmanon
p1174
sassg31
(dp1175
g3
(lp1176
(dp1177
Vwinner
p1178
g31
sVevent
p1179
VPrinceton Weekly 2
p1180
sVloser
p1181
VN2XX I Prison Mike
p1182
sa(dp1183
Vwinner
p1184
g31
sVevent
p1185
VPrinceton Weekly 2
p1186
sVloser
p1187
g131
sa(dp1188
Vwinner
p1189
g31
sVevent
p1190
VPrinceton Weekly 2
p1191
sVloser
p1192
g168
sa(dp1193
Vwinner
p1194
g31
sVevent
p1195
VPrinceton Weekly 2
p1196
sVloser
p1197
g120
sag983
a(dp1198
Vwinner
p1199
g31
sVevent
p1200
VPrinceton Weekly 3
p1201
sVloser
p1202
VMars
p1203
sa(dp1204
Vwinner
p1205
g31
sVevent
p1206
VPrinceton Weekly 3
p1207
sVloser
p1208
VOverflow
p1209
sa(dp1210
Vwinner
p1211
g31
sVevent
p1212
VPrinceton Weekly 4
p1213
sVloser
p1214
VGun
p1215
sa(dp1216
Vwinner
p1217
g31
sVevent
p1218
VPrinceton Weekly 4
p1219
sVloser
p1220
g353
sa(dp1221
Vwinner
p1222
g31
sVevent
p1223
VPrinceton Weekly 5
p1224
sVloser
p1225
Vcypher
p1226
sa(dp1227
Vwinner
p1228
g31
sVevent
p1229
VPrinceton Weekly 5
p1230
sVloser
p1231
g353
sa(dp1232
Vwinner
p1233
g31
sVevent
p1234
VPrinceton Weekly 5
p1235
sVloser
p1236
g36
sag505
a(dp1237
Vwinner
p1238
g31
sVevent
p1239
VPrinceton Weekly 6
p1240
sVloser
p1241
VMars
p1242
sag1151
a(dp1243
Vwinner
p1244
g31
sVevent
p1245
VJersey Japes 1
p1246
sVloser
p1247
VAJ
p1248
sa(dp1249
Vwinner
p1250
g31
sVevent
p1251
VJersey Japes 1
p1252
sVloser
p1253
VNipples
p1254
sasg32
(lp1255
(dp1256
Vwinner
p1257
g353
sVevent
p1258
VPrinceton Weekly 2
p1259
sVloser
p1260
g31
sag1094
a(dp1261
Vwinner
p1262
g36
sVevent
p1263
VPrinceton Weekly 3
p1264
sVloser
p1265
g31
sag674
a(dp1266
Vwinner
p1267
g232
sVevent
p1268
VPrinceton Weekly 4
p1269
sVloser
p1270
g31
sag1107
ag25
a(dp1271
Vwinner
p1272
g36
sVevent
p1273
VPrinceton Weekly 5
p1274
sVloser
p1275
g31
sa(dp1276
Vwinner
p1277
g36
sVevent
p1278
VPrinceton Weekly 6
p1279
sVloser
p1280
g31
sa(dp1281
Vwinner
p1282
g53
sVevent
p1283
VPrinceton Weekly 6
p1284
sVloser
p1285
g31
sa(dp1286
Vwinner
p1287
VInternet Explorer
p1288
sVevent
p1289
VJersey Japes 1
p1290
sVloser
p1291
g31
sa(dp1292
Vwinner
p1293
g36
sVevent
p1294
VJersey Japes 1
p1295
sVloser
p1296
g31
sassg262
(dp1297
g3
(lp1298
(dp1299
Vwinner
p1300
g262
sVevent
p1301
VPrinceton Weekly 1
p1302
sVloser
p1303
VColonel
p1304
sa(dp1305
Vwinner
p1306
g262
sVevent
p1307
VPrinceton Weekly 1
p1308
sVloser
p1309
VJustin Wong
p1310
sa(dp1311
Vwinner
p1312
g262
sVevent
p1313
VPrinceton Weekly 2
p1314
sVloser
p1315
VFranjoe
p1316
sa(dp1317
Vwinner
p1318
g262
sVevent
p1319
VPrinceton Weekly 2
p1320
sVloser
p1321
g157
sa(dp1322
Vwinner
p1323
g262
sVevent
p1324
VPrinceton Weekly 4
p1325
sVloser
p1326
VMr. Clean
p1327
sag260
a(dp1328
Vwinner
p1329
g262
sVevent
p1330
VPrinceton Weekly 4
p1331
sVloser
p1332
g353
sasg32
(lp1333
(dp1334
Vwinner
p1335
VOverflow
p1336
sVevent
p1337
VPrinceton Weekly 1
p1338
sVloser
p1339
g262
sa(dp1340
Vwinner
p1341
VDestructicon
p1342
sVevent
p1343
VPrinceton Weekly 1
p1344
sVloser
p1345
g262
sa(dp1346
Vwinner
p1347
VKosa
p1348
sVevent
p1349
VPrinceton Weekly 2
p1350
sVloser
p1351
g262
sa(dp1352
Vwinner
p1353
VOverflow
p1354
sVevent
p1355
VPrinceton Weekly 2
p1356
sVloser
p1357
g262
sa(dp1358
Vwinner
p1359
VCF
p1360
sVevent
p1361
VPrinceton Weekly 3
p1362
sVloser
p1363
g262
sa(dp1364
Vwinner
p1365
g238
sVevent
p1366
VPrinceton Weekly 3
p1367
sVloser
p1368
g262
sa(dp1369
Vwinner
p1370
g232
sVevent
p1371
VPrinceton Weekly 4
p1372
sVloser
p1373
g262
sa(dp1374
Vwinner
p1375
VOverflow
p1376
sVevent
p1377
VPrinceton Weekly 4
p1378
sVloser
p1379
g262
sa(dp1380
Vwinner
p1381
VMaster Beef
p1382
sVevent
p1383
VPrinceton Weekly 6
p1384
sVloser
p1385
g262
sa(dp1386
Vwinner
p1387
g168
sVevent
p1388
VPrinceton Weekly 6
p1389
sVloser
p1390
g262
sassVDougie Fresh
p1391
(dp1392
g3
(lp1393
sg32
(lp1394
(dp1395
Vwinner
p1396
VMGFC I Dekunut
p1397
sVevent
p1398
VPrinceton Weekly 3
p1399
sVloser
p1400
g1391
sag67
assg852
(dp1401
g3
(lp1402
(dp1403
Vwinner
p1404
VNipples
p1405
sVevent
p1406
VPrinceton Weekly 8
p1407
sVloser
p1408
VAJ
p1409
sag317
ag345
asg32
(lp1410
g846
a(dp1411
Vwinner
p1412
VThe Jedi
p1413
sVevent
p1414
VPrinceton Weekly 7
p1415
sVloser
p1416
VNipples
p1417
sag551
a(dp1418
Vwinner
p1419
g438
sVevent
p1420
VPrinceton Weekly 8
p1421
sVloser
p1422
VNipples
p1423
sa(dp1424
Vwinner
p1425
VDP
p1426
sVevent
p1427
VJersey Japes 1
p1428
sVloser
p1429
VNipples
p1430
sag1249
assg1304
(dp1431
g3
(lp1432
sg32
(lp1433
g1299
ag1066
assVTS I Lord Knight
p1434
(dp1435
g3
(lp1436
(dp1437
Vwinner
p1438
g1434
sVevent
p1439
VPrinceton Weekly 3
p1440
sVloser
p1441
g168
sag494
asg32
(lp1442
g944
a(dp1443
Vwinner
p1444
g24
sVevent
p1445
VPrinceton Weekly 3
p1446
sVloser
p1447
VTS I Lord Knight
p1448
sassg366
(dp1449
g3
(lp1450
sg32
(lp1451
g361
a(dp1452
Vwinner
p1453
VJahn
p1454
sVevent
p1455
VPrinceton Weekly 1
p1456
sVloser
p1457
VScrandino
p1458
sa(dp1459
Vwinner
p1460
VDudeacockus
p1461
sVevent
p1462
VPrinceton Weekly 4
p1463
sVloser
p1464
VScrandino
p1465
sag205
assVPei
p1466
(dp1467
g3
(lp1468
(dp1469
Vwinner
p1470
g1466
sVevent
p1471
VPrinceton Weekly 6
p1472
sVloser
p1473
g168
sa(dp1474
Vwinner
p1475
VPei
p1476
sVevent
p1477
VPrinceton Weekly 6
p1478
sVloser
p1479
VMaster Beef
p1480
sag773
a(dp1481
Vwinner
p1482
VPei
p1483
sVevent
p1484
VPrinceton Weekly 6
p1485
sVloser
p1486
g353
sag1019
a(dp1487
Vwinner
p1488
VPei
p1489
sVevent
p1490
VPrinceton Weekly 6
p1491
sVloser
p1492
g53
sag283
a(dp1493
Vwinner
p1494
VPei
p1495
sVevent
p1496
VPrinceton Weekly 7
p1497
sVloser
p1498
g137
sasg32
(lp1499
(dp1500
Vwinner
p1501
g36
sVevent
p1502
VPrinceton Weekly 6
p1503
sVloser
p1504
VPei
p1505
sa(dp1506
Vwinner
p1507
VInternet Explorer
p1508
sVevent
p1509
VPrinceton Weekly 6
p1510
sVloser
p1511
VPei
p1512
sag439
a(dp1513
Vwinner
p1514
VOverflow
p1515
sVevent
p1516
VPrinceton Weekly 7
p1517
sVloser
p1518
VPei
p1519
sassg1203
(dp1520
g3
(lp1521
(dp1522
Vwinner
p1523
VMars
p1524
sVevent
p1525
VPrinceton Weekly 3
p1526
sVloser
p1527
VScott
p1528
sag804
a(dp1529
Vwinner
p1530
VMars
p1531
sVevent
p1532
VPrinceton Weekly 6
p1533
sVloser
p1534
VBUTTplunder
p1535
sag277
asg32
(lp1536
g1198
a(dp1537
Vwinner
p1538
g168
sVevent
p1539
VPrinceton Weekly 3
p1540
sVloser
p1541
VMars
p1542
sag1237
a(dp1543
Vwinner
p1544
g53
sVevent
p1545
VPrinceton Weekly 6
p1546
sVloser
p1547
VMars
p1548
sassVLum
p1549
(dp1550
g3
(lp1551
sg32
(lp1552
(dp1553
Vwinner
p1554
g689
sVevent
p1555
VPrinceton Weekly 8
p1556
sVloser
p1557
g1549
sa(dp1558
Vwinner
p1559
g438
sVevent
p1560
VPrinceton Weekly 8
p1561
sVloser
p1562
VLum
p1563
sassVKmac
p1564
(dp1565
g3
(lp1566
(dp1567
Vwinner
p1568
g1564
sVevent
p1569
VPrinceton Weekly 1
p1570
sVloser
p1571
VThatPrincetonWeekliesGuy
p1572
sa(dp1573
Vwinner
p1574
VKmac
p1575
sVevent
p1576
VPrinceton Weekly 1
p1577
sVloser
p1578
g120
sa(dp1579
Vwinner
p1580
VKmac
p1581
sVevent
p1582
VPrinceton Weekly 1
p1583
sVloser
p1584
VKosa
p1585
sasg32
(lp1586
(dp1587
Vwinner
p1588
g24
sVevent
p1589
VPrinceton Weekly 1
p1590
sVloser
p1591
VKmac
p1592
sa(dp1593
Vwinner
p1594
VSon2
p1595
sVevent
p1596
VPrinceton Weekly 1
p1597
sVloser
p1598
VKmac
p1599
sassVDestructicon
p1600
(dp1601
g3
(lp1602
(dp1603
Vwinner
p1604
g1600
sVevent
p1605
VPrinceton Weekly 1
p1606
sVloser
p1607
g77
sa(dp1608
Vwinner
p1609
VDestructicon
p1610
sVevent
p1611
VPrinceton Weekly 1
p1612
sVloser
p1613
g168
sag1340
a(dp1614
Vwinner
p1615
VDestructicon
p1616
sVevent
p1617
VPrinceton Weekly 1
p1618
sVloser
p1619
g131
sa(dp1620
Vwinner
p1621
VDestructicon
p1622
sVevent
p1623
VPrinceton Weekly 1
p1624
sVloser
p1625
VPyro
p1626
sasg32
(lp1627
(dp1628
Vwinner
p1629
VSon2
p1630
sVevent
p1631
VPrinceton Weekly 1
p1632
sVloser
p1633
VDestructicon
p1634
sa(dp1635
Vwinner
p1636
VOverflow
p1637
sVevent
p1638
VPrinceton Weekly 1
p1639
sVloser
p1640
VDestructicon
p1641
sassg53
(dp1642
g3
(lp1643
g266
a(dp1644
Vwinner
p1645
g53
sVevent
p1646
VPrinceton Weekly 5
p1647
sVloser
p1648
VCF
p1649
sag51
a(dp1650
Vwinner
p1651
g53
sVevent
p1652
VPrinceton Weekly 6
p1653
sVloser
p1654
g353
sag1543
ag880
ag1281
a(dp1655
Vwinner
p1656
g53
sVevent
p1657
VPrinceton Weekly 7
p1658
sVloser
p1659
VFailsaucemcgee
p1660
sa(dp1661
Vwinner
p1662
g53
sVevent
p1663
VPrinceton Weekly 7
p1664
sVloser
p1665
VAJ
p1666
sasg32
(lp1667
(dp1668
Vwinner
p1669
g36
sVevent
p1670
VPrinceton Weekly 5
p1671
sVloser
p1672
g53
sa(dp1673
Vwinner
p1674
g353
sVevent
p1675
VPrinceton Weekly 5
p1676
sVloser
p1677
g53
sa(dp1678
Vwinner
p1679
VInternet Explorer
p1680
sVevent
p1681
VPrinceton Weekly 6
p1682
sVloser
p1683
g53
sag1487
a(dp1684
Vwinner
p1685
VOverflow
p1686
sVevent
p1687
VPrinceton Weekly 7
p1688
sVloser
p1689
g53
sa(dp1690
Vwinner
p1691
VThe Jedi
p1692
sVevent
p1693
VPrinceton Weekly 7
p1694
sVloser
p1695
g53
sassVSomar
p1696
(dp1697
g3
(lp1698
(dp1699
Vwinner
p1700
VSomar
p1701
sVevent
p1702
VPrinceton Weekly 1
p1703
sVloser
p1704
VKevin Liu
p1705
sasg32
(lp1706
(dp1707
Vwinner
p1708
g131
sVevent
p1709
VPrinceton Weekly 1
p1710
sVloser
p1711
g1696
sa(dp1712
Vwinner
p1713
g238
sVevent
p1714
VPrinceton Weekly 1
p1715
sVloser
p1716
VSomar
p1717
sassg1660
(dp1718
g3
(lp1719
g311
a(dp1720
Vwinner
p1721
VFailsaucemcgee
p1722
sVevent
p1723
VPrinceton Weekly 8
p1724
sVloser
p1725
VAJ
p1726
sa(dp1727
Vwinner
p1728
VFailsaucemcgee
p1729
sVevent
p1730
VJersey Japes 1
p1731
sVloser
p1732
g157
sa(dp1733
Vwinner
p1734
VFailsaucemcgee
p1735
sVevent
p1736
VJersey Japes 1
p1737
sVloser
p1738
VBuu
p1739
sasg32
(lp1740
g1655
a(dp1741
Vwinner
p1742
g137
sVevent
p1743
VPrinceton Weekly 7
p1744
sVloser
p1745
VFailsaucemcgee
p1746
sag445
a(dp1747
Vwinner
p1748
g689
sVevent
p1749
VPrinceton Weekly 8
p1750
sVloser
p1751
VFailsaucemcgee
p1752
sag581
a(dp1753
Vwinner
p1754
g137
sVevent
p1755
VJersey Japes 1
p1756
sVloser
p1757
VFailsaucemcgee
p1758
sassVJoe
p1759
(dp1760
g3
(lp1761
(dp1762
Vwinner
p1763
g1759
sVevent
p1764
VPrinceton Weekly 7
p1765
sVloser
p1766
g157
sa(dp1767
Vwinner
p1768
VJoe
p1769
sVevent
p1770
VPrinceton Weekly 7
p1771
sVloser
p1772
VAD
p1773
sasg32
(lp1774
(dp1775
Vwinner
p1776
g534
sVevent
p1777
VPrinceton Weekly 7
p1778
sVloser
p1779
VJoe
p1780
sa(dp1781
Vwinner
p1782
VKosa
p1783
sVevent
p1784
VPrinceton Weekly 7
p1785
sVloser
p1786
VJoe
p1787
sassg24
(dp1788
g3
(lp1789
(dp1790
Vwinner
p1791
g24
sVevent
p1792
VPrinceton Weekly 1
p1793
sVloser
p1794
VJack
p1795
sag1587
a(dp1796
Vwinner
p1797
g24
sVevent
p1798
VPrinceton Weekly 1
p1799
sVloser
p1800
g131
sa(dp1801
Vwinner
p1802
g24
sVevent
p1803
VPrinceton Weekly 3
p1804
sVloser
p1805
VBDukes
p1806
sa(dp1807
Vwinner
p1808
g24
sVevent
p1809
VPrinceton Weekly 3
p1810
sVloser
p1811
VKosa
p1812
sa(dp1813
Vwinner
p1814
g24
sVevent
p1815
VPrinceton Weekly 3
p1816
sVloser
p1817
g168
sag740
ag1443
a(dp1818
Vwinner
p1819
g24
sVevent
p1820
VPrinceton Weekly 4
p1821
sVloser
p1822
VZodiac
p1823
sa(dp1824
Vwinner
p1825
g24
sVevent
p1826
VPrinceton Weekly 4
p1827
sVloser
p1828
VKosa
p1829
sag1145
a(dp1830
Vwinner
p1831
g24
sVevent
p1832
VPrinceton Weekly 5
p1833
sVloser
p1834
VLink?
p1835
sag757
asg32
(lp1836
(dp1837
Vwinner
p1838
g36
sVevent
p1839
VPrinceton Weekly 1
p1840
sVloser
p1841
g24
sa(dp1842
Vwinner
p1843
VSon2
p1844
sVevent
p1845
VPrinceton Weekly 1
p1846
sVloser
p1847
g24
sa(dp1848
Vwinner
p1849
VMGFC I Dekunut
p1850
sVevent
p1851
VPrinceton Weekly 3
p1852
sVloser
p1853
g24
sa(dp1854
Vwinner
p1855
g232
sVevent
p1856
VPrinceton Weekly 3
p1857
sVloser
p1858
g24
sag956
a(dp1859
Vwinner
p1860
g161
sVevent
p1861
VPrinceton Weekly 4
p1862
sVloser
p1863
g24
sag18
a(dp1864
Vwinner
p1865
g36
sVevent
p1866
VPrinceton Weekly 5
p1867
sVloser
p1868
g24
sassg1336
(dp1869
g3
(lp1870
g1334
a(dp1871
Vwinner
p1872
VOverflow
p1873
sVevent
p1874
VPrinceton Weekly 1
p1875
sVloser
p1876
VSon2
p1877
sag1635
a(dp1878
Vwinner
p1879
VOverflow
p1880
sVevent
p1881
VPrinceton Weekly 2
p1882
sVloser
p1883
VCF
p1884
sag1352
a(dp1885
Vwinner
p1886
VOverflow
p1887
sVevent
p1888
VPrinceton Weekly 3
p1889
sVloser
p1890
g1528
sa(dp1891
Vwinner
p1892
VOverflow
p1893
sVevent
p1894
VPrinceton Weekly 3
p1895
sVloser
p1896
VMr. Clean
p1897
sa(dp1898
Vwinner
p1899
VOverflow
p1900
sVevent
p1901
VPrinceton Weekly 3
p1902
sVloser
p1903
VPeanutphobia
p1904
sag793
ag745
ag1374
a(dp1905
Vwinner
p1906
VOverflow
p1907
sVevent
p1908
VPrinceton Weekly 4
p1909
sVloser
p1910
VZodiac
p1911
sag1684
a(dp1912
Vwinner
p1913
VOverflow
p1914
sVevent
p1915
VPrinceton Weekly 7
p1916
sVloser
p1917
VKosa
p1918
sag1513
asg32
(lp1919
(dp1920
Vwinner
p1921
g232
sVevent
p1922
VPrinceton Weekly 1
p1923
sVloser
p1924
VOverflow
p1925
sa(dp1926
Vwinner
p1927
VSon2
p1928
sVevent
p1929
VPrinceton Weekly 1
p1930
sVloser
p1931
VOverflow
p1932
sag1080
ag928
ag1204
a(dp1933
Vwinner
p1934
g232
sVevent
p1935
VPrinceton Weekly 3
p1936
sVloser
p1937
VOverflow
p1938
sa(dp1939
Vwinner
p1940
g161
sVevent
p1941
VPrinceton Weekly 4
p1942
sVloser
p1943
VOverflow
p1944
sag961
a(dp1945
Vwinner
p1946
g36
sVevent
p1947
VPrinceton Weekly 7
p1948
sVloser
p1949
VOverflow
p1950
sa(dp1951
Vwinner
p1952
VInternet Explorer
p1953
sVevent
p1954
VPrinceton Weekly 7
p1955
sVloser
p1956
VOverflow
p1957
sassg1065
(dp1958
g3
(lp1959
g1034
asg32
(lp1960
g1060
ag1305
assg168
(dp1961
g3
(lp1962
g166
a(dp1963
Vwinner
p1964
g168
sVevent
p1965
VPrinceton Weekly 3
p1966
sVloser
p1967
VMr. Clean
p1968
sag1537
a(dp1969
Vwinner
p1970
g168
sVevent
p1971
VPrinceton Weekly 3
p1972
sVloser
p1973
g238
sag1386
a(dp1974
Vwinner
p1975
g168
sVevent
p1976
VPrinceton Weekly 6
p1977
sVloser
p1978
VImmersion
p1979
sasg32
(lp1980
(dp1981
Vwinner
p1982
VZodiac
p1983
sVevent
p1984
VPrinceton Weekly 1
p1985
sVloser
p1986
g168
sag1608
a(dp1987
Vwinner
p1988
VJavier
p1989
sVevent
p1990
VPrinceton Weekly 2
p1991
sVloser
p1992
g168
sag1188
ag1437
ag1813
ag1469
a(dp1993
Vwinner
p1994
g353
sVevent
p1995
VPrinceton Weekly 6
p1996
sVloser
p1997
g168
sassg137
(dp1998
g3
(lp1999
(dp2000
Vwinner
p2001
g137
sVevent
p2002
VPrinceton Weekly 7
p2003
sVloser
p2004
VAJ
p2005
sag1741
ag892
ag135
ag1753
asg32
(lp2006
(dp2007
Vwinner
p2008
VInternet Explorer
p2009
sVevent
p2010
VPrinceton Weekly 7
p2011
sVloser
p2012
g137
sag1493
ag724
ag467
assVFlip
p2013
(dp2014
g3
(lp2015
(dp2016
Vwinner
p2017
g2013
sVevent
p2018
VPrinceton Weekly 4
p2019
sVloser
p2020
g689
sasg32
(lp2021
g950
a(dp2022
Vwinner
p2023
g438
sVevent
p2024
VPrinceton Weekly 4
p2025
sVloser
p2026
VFlip
p2027
sassVYCJ
p2028
(dp2029
g3
(lp2030
(dp2031
Vwinner
p2032
VYCJ
p2033
sVevent
p2034
VPrinceton Weekly 5
p2035
sVloser
p2036
Vcypher
p2037
sa(dp2038
Vwinner
p2039
VYCJ
p2040
sVevent
p2041
VPrinceton Weekly 5
p2042
sVloser
p2043
Vtalrane
p2044
sasg32
(lp2045
(dp2046
Vwinner
p2047
g353
sVevent
p2048
VPrinceton Weekly 5
p2049
sVloser
p2050
g2028
sag104
assg1106
(dp2051
g3
(lp2052
sg32
(lp2053
g1100
a(dp2054
Vwinner
p2055
VZodiac
p2056
sVevent
p2057
VPrinceton Weekly 4
p2058
sVloser
p2059
VTeam
p2060
sassg238
(dp2061
g3
(lp2062
(dp2063
Vwinner
p2064
g238
sVevent
p2065
VPrinceton Weekly 1
p2066
sVloser
p2067
VJahn
p2068
sag1712
ag624
a(dp2069
Vwinner
p2070
g238
sVevent
p2071
VPrinceton Weekly 2
p2072
sVloser
p2073
VOPC
p2074
sag236
a(dp2075
Vwinner
p2076
g238
sVevent
p2077
VPrinceton Weekly 3
p2078
sVloser
p2079
VPeanutphobia
p2080
sag1364
a(dp2081
Vwinner
p2082
g238
sVevent
p2083
VPrinceton Weekly 5
p2084
sVloser
p2085
g131
sa(dp2086
Vwinner
p2087
g238
sVevent
p2088
VPrinceton Weekly 5
p2089
sVloser
p2090
Vtongue
p2091
sasg32
(lp2092
g367
a(dp2093
Vwinner
p2094
VPyro
p2095
sVevent
p2096
VPrinceton Weekly 1
p2097
sVloser
p2098
g238
sa(dp2099
Vwinner
p2100
g120
sVevent
p2101
VPrinceton Weekly 2
p2102
sVloser
p2103
g238
sa(dp2104
Vwinner
p2105
g353
sVevent
p2106
VPrinceton Weekly 2
p2107
sVloser
p2108
g238
sag407
ag1969
ag418
a(dp2109
Vwinner
p2110
g161
sVevent
p2111
VPrinceton Weekly 5
p2112
sVloser
p2113
g238
sassg438
(dp2114
g3
(lp2115
g799
ag2022
a(dp2116
Vwinner
p2117
g438
sVevent
p2118
VPrinceton Weekly 6
p2119
sVloser
p2120
VMr. Clean
p2121
sa(dp2122
Vwinner
p2123
g438
sVevent
p2124
VPrinceton Weekly 6
p2125
sVloser
p2126
VCap Fabulous
p2127
sa(dp2128
Vwinner
p2129
g438
sVevent
p2130
VPrinceton Weekly 7
p2131
sVloser
p2132
VAD
p2133
sa(dp2134
Vwinner
p2135
g438
sVevent
p2136
VPrinceton Weekly 7
p2137
sVloser
p2138
g157
sa(dp2139
Vwinner
p2140
g438
sVevent
p2141
VPrinceton Weekly 7
p2142
sVloser
p2143
VSir Fredrick
p2144
sag1558
ag1418
a(dp2145
Vwinner
p2146
g438
sVevent
p2147
VJersey Japes 1
p2148
sVloser
p2149
VBuu
p2150
sa(dp2151
Vwinner
p2152
g438
sVevent
p2153
VJersey Japes 1
p2154
sVloser
p2155
g157
sasg32
(lp2156
g934
ag900
ag679
a(dp2157
Vwinner
p2158
VZodiac
p2159
sVevent
p2160
VPrinceton Weekly 4
p2161
sVloser
p2162
g438
sa(dp2163
Vwinner
p2164
g120
sVevent
p2165
VPrinceton Weekly 5
p2166
sVloser
p2167
g438
sa(dp2168
Vwinner
p2169
VKosa
p2170
sVevent
p2171
VPrinceton Weekly 5
p2172
sVloser
p2173
g438
sag977
ag708
ag433
a(dp2174
Vwinner
p2175
g522
sVevent
p2176
VPrinceton Weekly 7
p2177
sVloser
p2178
g438
sa(dp2179
Vwinner
p2180
g353
sVevent
p2181
VPrinceton Weekly 8
p2182
sVloser
p2183
g438
sag719
a(dp2184
Vwinner
p2185
VPlank
p2186
sVevent
p2187
VJersey Japes 1
p2188
sVloser
p2189
g438
sa(dp2190
Vwinner
p2191
g131
sVevent
p2192
VJersey Japes 1
p2193
sVloser
p2194
g438
sassg614
(dp2195
g3
(lp2196
g612
ag1628
ag1593
ag478
ag1842
ag1926
a(dp2197
Vwinner
p2198
VSon2
p2199
sVevent
p2200
VPrinceton Weekly 1
p2201
sVloser
p2202
g232
sasg32
(lp2203
g1871
a(dp2204
Vwinner
p2205
g36
sVevent
p2206
VPrinceton Weekly 1
p2207
sVloser
p2208
VSon2
p2209
sassg1182
(dp2210
g3
(lp2211
(dp2212
Vwinner
p2213
VN2XX I Prison Mike
p2214
sVevent
p2215
VPrinceton Weekly 2
p2216
sVloser
p2217
g1835
sasg32
(lp2218
g1177
ag818
assg1079
(dp2219
g3
(lp2220
sg32
(lp2221
g1073
ag2069
ag825
a(dp2222
Vwinner
p2223
VKosa
p2224
sVevent
p2225
VPrinceton Weekly 3
p2226
sVloser
p2227
VOPC
p2228
sassVtongue
p2229
(dp2230
g3
(lp2231
sg32
(lp2232
(dp2233
Vwinner
p2234
g1835
sVevent
p2235
VPrinceton Weekly 5
p2236
sVloser
p2237
g2229
sag2086
assg1835
(dp2238
g3
(lp2239
g2233
asg32
(lp2240
(dp2241
Vwinner
p2242
g353
sVevent
p2243
VPrinceton Weekly 2
p2244
sVloser
p2245
g1835
sag2212
ag1830
a(dp2246
Vwinner
p2247
g131
sVevent
p2248
VPrinceton Weekly 5
p2249
sVloser
p2250
g1835
sassg1968
(dp2251
g3
(lp2252
sg32
(lp2253
g1963
ag1891
ag1322
a(dp2254
Vwinner
p2255
VKosa
p2256
sVevent
p2257
VPrinceton Weekly 4
p2258
sVloser
p2259
VMr. Clean
p2260
sag2116
ag217
assVtalrane
p2261
(dp2262
g3
(lp2263
(dp2264
Vwinner
p2265
g2261
sVevent
p2266
VPrinceton Weekly 5
p2267
sVloser
p2268
g157
sasg32
(lp2269
g5
ag2038
assg157
(dp2270
g3
(lp2271
sg32
(lp2272
g188
ag1317
a(dp2273
Vwinner
p2274
g353
sVevent
p2275
VPrinceton Weekly 4
p2276
sVloser
p2277
g157
sa(dp2278
Vwinner
p2279
VGun
p2280
sVevent
p2281
VPrinceton Weekly 4
p2282
sVloser
p2283
g157
sag2264
a(dp2284
Vwinner
p2285
g353
sVevent
p2286
VPrinceton Weekly 5
p2287
sVloser
p2288
g157
sag151
a(dp2289
Vwinner
p2290
g353
sVevent
p2291
VPrinceton Weekly 6
p2292
sVloser
p2293
g157
sag1762
ag2134
ag1727
ag2151
assVDesai
p2294
(dp2295
g3
(lp2296
sg32
(lp2297
(dp2298
Vwinner
p2299
VKosa
p2300
sVevent
p2301
VPrinceton Weekly 2
p2302
sVloser
p2303
g2294
sa(dp2304
Vwinner
p2305
VFranjoe
p2306
sVevent
p2307
VPrinceton Weekly 2
p2308
sVloser
p2309
VDesai
p2310
sassg2068
(dp2311
g3
(lp2312
g1452
asg32
(lp2313
g2063
a(dp2314
Vwinner
p2315
VKosa
p2316
sVevent
p2317
VPrinceton Weekly 1
p2318
sVloser
p2319
VJahn
p2320
sassVInternet Explorer
p2321
(dp2322
g3
(lp2323
(dp2324
Vwinner
p2325
g2321
sVevent
p2326
VPrinceton Weekly 6
p2327
sVloser
p2328
VImmersion
p2329
sag1678
ag1013
ag1506
ag2007
a(dp2330
Vwinner
p2331
VInternet Explorer
p2332
sVevent
p2333
VPrinceton Weekly 7
p2334
sVloser
p2335
g522
sag1951
a(dp2336
Vwinner
p2337
VInternet Explorer
p2338
sVevent
p2339
VPrinceton Weekly 8
p2340
sVloser
p2341
g689
sag526
a(dp2342
Vwinner
p2343
VInternet Explorer
p2344
sVevent
p2345
VPrinceton Weekly 8
p2346
sVloser
p2347
g353
sa(dp2348
Vwinner
p2349
VInternet Explorer
p2350
sVevent
p2351
VPrinceton Weekly 8
p2352
sVloser
p2353
g534
sag1286
a(dp2354
Vwinner
p2355
VInternet Explorer
p2356
sVevent
p2357
VJersey Japes 1
p2358
sVloser
p2359
g131
sag784
asg32
(lp2360
(dp2361
Vwinner
p2362
g36
sVevent
p2363
VPrinceton Weekly 6
p2364
sVloser
p2365
VInternet Explorer
p2366
sa(dp2367
Vwinner
p2368
g36
sVevent
p2369
VPrinceton Weekly 6
p2370
sVloser
p2371
VInternet Explorer
p2372
sa(dp2373
Vwinner
p2374
g534
sVevent
p2375
VPrinceton Weekly 7
p2376
sVloser
p2377
VInternet Explorer
p2378
sa(dp2379
Vwinner
p2380
g522
sVevent
p2381
VPrinceton Weekly 7
p2382
sVloser
p2383
VInternet Explorer
p2384
sa(dp2385
Vwinner
p2386
g36
sVevent
p2387
VPrinceton Weekly 8
p2388
sVloser
p2389
VInternet Explorer
p2390
sa(dp2391
Vwinner
p2392
g36
sVevent
p2393
VPrinceton Weekly 8
p2394
sVloser
p2395
VInternet Explorer
p2396
sa(dp2397
Vwinner
p2398
VDP
p2399
sVevent
p2400
VJersey Japes 1
p2401
sVloser
p2402
VInternet Explorer
p2403
sa(dp2404
Vwinner
p2405
VPlank
p2406
sVevent
p2407
VJersey Japes 1
p2408
sVloser
p2409
VInternet Explorer
p2410
sassg1316
(dp2411
g3
(lp2412
g2304
asg32
(lp2413
g1311
ag193
assg36
(dp2414
g3
(lp2415
(dp2416
Vwinner
p2417
g36
sVevent
p2418
VPrinceton Weekly 1
p2419
sVloser
p2420
VZodiac
p2421
sa(dp2422
Vwinner
p2423
g36
sVevent
p2424
VPrinceton Weekly 1
p2425
sVloser
p2426
g353
sag1837
a(dp2427
Vwinner
p2428
g36
sVevent
p2429
VPrinceton Weekly 1
p2430
sVloser
p2431
g232
sag2204
a(dp2432
Vwinner
p2433
g36
sVevent
p2434
VPrinceton Weekly 3
p2435
sVloser
p2436
VCF
p2437
sag1261
a(dp2438
Vwinner
p2439
g36
sVevent
p2440
VPrinceton Weekly 3
p2441
sVloser
p2442
VMGFC I Dekunut
p2443
sag988
a(dp2444
Vwinner
p2445
g36
sVevent
p2446
VPrinceton Weekly 3
p2447
sVloser
p2448
g232
sag1668
ag34
ag41
a(dp2449
Vwinner
p2450
g36
sVevent
p2451
VPrinceton Weekly 5
p2452
sVloser
p2453
VKosa
p2454
sa(dp2455
Vwinner
p2456
g36
sVevent
p2457
VPrinceton Weekly 5
p2458
sVloser
p2459
g120
sag1864
ag510
ag1271
ag173
ag1500
ag1276
ag2361
ag2367
a(dp2460
Vwinner
p2461
g36
sVevent
p2462
VPrinceton Weekly 7
p2463
sVloser
p2464
VThe Jedi
p2465
sag1945
ag515
a(dp2466
Vwinner
p2467
g36
sVevent
p2468
VPrinceton Weekly 7
p2469
sVloser
p2470
g534
sa(dp2471
Vwinner
p2472
g36
sVevent
p2473
VPrinceton Weekly 8
p2474
sVloser
p2475
VChristian
p2476
sag779
ag2385
ag2391
a(dp2477
Vwinner
p2478
g36
sVevent
p2479
VJersey Japes 1
p2480
sVloser
p2481
g131
sag1292
ag543
ag602
asg32
(lp2482
g1232
a(dp2483
Vwinner
p2484
g522
sVevent
p2485
VPrinceton Weekly 7
p2486
sVloser
p2487
g36
sa(dp2488
Vwinner
p2489
g522
sVevent
p2490
VPrinceton Weekly 7
p2491
sVloser
p2492
g36
sag569
ag575
a(dp2493
Vwinner
p2494
VPlank
p2495
sVevent
p2496
VJersey Japes 1
p2497
sVloser
p2498
g36
sa(dp2499
Vwinner
p2500
VPlank
p2501
sVevent
p2502
VJersey Japes 1
p2503
sVloser
p2504
g36
sassg353
(dp2505
g3
(lp2506
g1029
ag1120
ag2241
ag1256
ag2104
ag2273
a(dp2507
Vwinner
p2508
g353
sVevent
p2509
VPrinceton Weekly 4
p2510
sVloser
p2511
g77
sag2046
ag2284
ag1673
ag762
ag1008
ag2289
ag1993
ag1157
a(dp2512
Vwinner
p2513
g353
sVevent
p2514
VPrinceton Weekly 7
p2515
sVloser
p2516
VKosa
p2517
sag2179
a(dp2518
Vwinner
p2519
g353
sVevent
p2520
VPrinceton Weekly 8
p2521
sVloser
p2522
VKosa
p2523
sag1169
ag351
a(dp2524
Vwinner
p2525
g353
sVevent
p2526
VJersey Japes 1
p2527
sVloser
p2528
VChristian
p2529
sasg32
(lp2530
g2422
a(dp2531
Vwinner
p2532
VPyro
p2533
sVevent
p2534
VPrinceton Weekly 1
p2535
sVloser
p2536
g353
sa(dp2537
Vwinner
p2538
g161
sVevent
p2539
VPrinceton Weekly 2
p2540
sVloser
p2541
g353
sa(dp2542
Vwinner
p2543
VJavier
p2544
sVevent
p2545
VPrinceton Weekly 2
p2546
sVloser
p2547
g353
sag1216
ag1328
ag1227
ag428
ag1650
ag1481
a(dp2548
Vwinner
p2549
g534
sVevent
p2550
VPrinceton Weekly 7
p2551
sVloser
p2552
g353
sa(dp2553
Vwinner
p2554
VThe Jedi
p2555
sVevent
p2556
VPrinceton Weekly 7
p2557
sVloser
p2558
g353
sag557
ag2342
ag462
ag729
assg406
(dp2559
g3
(lp2560
(dp2561
Vwinner
p2562
VImmersion
p2563
sVevent
p2564
VPrinceton Weekly 6
p2565
sVloser
p2566
g456
sasg32
(lp2567
g401
a(dp2568
Vwinner
p2569
VPeanutphobia
p2570
sVevent
p2571
VPrinceton Weekly 3
p2572
sVloser
p2573
VImmersion
p2574
sag2324
ag1974
assg1806
(dp2575
g3
(lp2576
sg32
(lp2577
g1801
ag199
assg2150
(dp2578
g3
(lp2579
sg32
(lp2580
g2145
ag1733
assVSir Fredrick
p2581
(dp2582
g3
(lp2583
g289
asg32
(lp2584
(dp2585
Vwinner
p2586
VKosa
p2587
sVevent
p2588
VPrinceton Weekly 7
p2589
sVloser
p2590
g2581
sag2139
assVKevin Liu
p2591
(dp2592
g3
(lp2593
sg32
(lp2594
(dp2595
Vwinner
p2596
VKosa
p2597
sVevent
p2598
VPrinceton Weekly 1
p2599
sVloser
p2600
g2591
sag1699
assg1989
(dp2601
g3
(lp2602
g1987
ag653
ag861
a(dp2603
Vwinner
p2604
VJavier
p2605
sVevent
p2606
VPrinceton Weekly 2
p2607
sVloser
p2608
VKosa
p2609
sag2542
asg32
(lp2610
g922
ag389
assVCF
p2611
(dp2612
g3
(lp2613
g630
ag1358
a(dp2614
Vwinner
p2615
VCF
p2616
sVevent
p2617
VPrinceton Weekly 4
p2618
sVloser
p2619
g77
sa(dp2620
Vwinner
p2621
VCF
p2622
sVevent
p2623
VPrinceton Weekly 4
p2624
sVloser
p2625
VGun
p2626
sasg32
(lp2627
(dp2628
Vwinner
p2629
g120
sVevent
p2630
VPrinceton Weekly 2
p2631
sVloser
p2632
g2611
sag1878
ag2432
a(dp2633
Vwinner
p2634
VPeanutphobia
p2635
sVevent
p2636
VPrinceton Weekly 3
p2637
sVloser
p2638
VCF
p2639
sa(dp2640
Vwinner
p2641
g534
sVevent
p2642
VPrinceton Weekly 4
p2643
sVloser
p2644
VCF
p2645
sa(dp2646
Vwinner
p2647
VKosa
p2648
sVevent
p2649
VPrinceton Weekly 4
p2650
sVloser
p2651
VCF
p2652
sag91
ag1644
assVPyro
p2653
(dp2654
g3
(lp2655
(dp2656
Vwinner
p2657
g2653
sVevent
p2658
VPrinceton Weekly 1
p2659
sVloser
p2660
g120
sa(dp2661
Vwinner
p2662
VPyro
p2663
sVevent
p2664
VPrinceton Weekly 1
p2665
sVloser
p2666
VThatPrincetonWeekliesGuy
p2667
sag2093
ag2531
asg32
(lp2668
(dp2669
Vwinner
p2670
g232
sVevent
p2671
VPrinceton Weekly 1
p2672
sVloser
p2673
VPyro
p2674
sag1620
assg838
(dp2675
g3
(lp2676
sg32
(lp2677
g832
a(dp2678
Vwinner
p2679
VBUTTplunder
p2680
sVevent
p2681
VPrinceton Weekly 6
p2682
sVloser
p2683
VCrowley
p2684
sassg77
(dp2685
g3
(lp2686
g618
ag75
asg32
(lp2687
g1603
a(dp2688
Vwinner
p2689
VZodiac
p2690
sVevent
p2691
VPrinceton Weekly 1
p2692
sVloser
p2693
g77
sa(dp2694
Vwinner
p2695
VMGFC I Dekunut
p2696
sVevent
p2697
VPrinceton Weekly 3
p2698
sVloser
p2699
g77
sag906
ag2614
ag2507
assg216
(dp2700
g3
(lp2701
sg32
(lp2702
g211
ag2122
assg1461
(dp2703
g3
(lp2704
g1459
a(dp2705
Vwinner
p2706
VDudeacockus
p2707
sVevent
p2708
VPrinceton Weekly 4
p2709
sVloser
p2710
VKosa
p2711
sasg32
(lp2712
(dp2713
Vwinner
p2714
g534
sVevent
p2715
VPrinceton Weekly 4
p2716
sVloser
p2717
VDudeacockus
p2718
sa(dp2719
Vwinner
p2720
VZodiac
p2721
sVevent
p2722
VPrinceton Weekly 4
p2723
sVloser
p2724
VDudeacockus
p2725
sassg1226
(dp2726
g3
(lp2727
sg32
(lp2728
g1221
ag2031
assg1382
(dp2729
g3
(lp2730
g1380
a(dp2731
Vwinner
p2732
VMaster Beef
p2733
sVevent
p2734
VPrinceton Weekly 6
p2735
sVloser
p2736
g456
sag179
asg32
(lp2737
g1474
ag839
assg1572
(dp2738
g3
(lp2739
(dp2740
Vwinner
p2741
VThatPrincetonWeekliesGuy
p2742
sVevent
p2743
VPrinceton Weekly 1
p2744
sVloser
p2745
VJack
p2746
sasg32
(lp2747
g1567
ag2661
assg228
(dp2748
g3
(lp2749
sg32
(lp2750
g223
a(dp2751
Vwinner
p2752
VKosa
p2753
sVevent
p2754
VPrinceton Weekly 7
p2755
sVloser
p2756
VMang0
p2757
sassg689
(dp2758
g3
(lp2759
g1553
ag1747
asg32
(lp2760
g2016
ag684
ag2336
ag1113
assg232
(dp2761
g3
(lp2762
g2669
ag473
ag1920
ag230
a(dp2763
Vwinner
p2764
g232
sVevent
p2765
VPrinceton Weekly 2
p2766
sVloser
p2767
g120
sag484
a(dp2768
Vwinner
p2769
g232
sVevent
p2770
VPrinceton Weekly 2
p2771
sVloser
p2772
g161
sa(dp2773
Vwinner
p2774
g232
sVevent
p2775
VPrinceton Weekly 2
p2776
sVloser
p2777
g161
sag868
ag1933
ag500
a(dp2778
Vwinner
p2779
g232
sVevent
p2780
VPrinceton Weekly 3
p2781
sVloser
p2782
VMGFC I Dekunut
p2783
sag1854
ag993
ag1369
ag1266
ag998
a(dp2784
Vwinner
p2785
g232
sVevent
p2786
VPrinceton Weekly 4
p2787
sVloser
p2788
g534
sa(dp2789
Vwinner
p2790
g232
sVevent
p2791
VPrinceton Weekly 4
p2792
sVloser
p2793
g534
sasg32
(lp2794
g2427
ag2197
ag939
ag2444
assg120
(dp2795
g3
(lp2796
g2628
ag2099
ag2163
a(dp2797
Vwinner
p2798
g120
sVevent
p2799
VPrinceton Weekly 5
p2800
sVloser
p2801
g161
sag118
asg32
(lp2802
g2656
ag1573
ag2763
ag1193
ag423
ag2455
assVThe Jedi
p2803
(dp2804
g3
(lp2805
(dp2806
Vwinner
p2807
g2803
sVevent
p2808
VPrinceton Weekly 7
p2809
sVloser
p2810
VChristian
p2811
sag1411
ag1690
ag2553
asg32
(lp2812
g2460
a(dp2813
Vwinner
p2814
g522
sVevent
p2815
VPrinceton Weekly 7
p2816
sVloser
p2817
VThe Jedi
p2818
sassg1426
(dp2819
g3
(lp2820
g1424
ag2397
ag595
a(dp2821
Vwinner
p2822
VDP
p2823
sVevent
p2824
VJersey Japes 1
p2825
sVloser
p2826
g522
sasg32
(lp2827
(dp2828
Vwinner
p2829
VPlank
p2830
sVevent
p2831
VJersey Japes 1
p2832
sVloser
p2833
VDP
p2834
sa(dp2835
Vwinner
p2836
VPlank
p2837
sVevent
p2838
VJersey Japes 1
p2839
sVloser
p2840
VDP
p2841
sassg522
(dp2842
g3
(lp2843
g886
ag2483
ag2488
ag2174
ag2813
ag520
ag2379
a(dp2844
Vwinner
p2845
g522
sVevent
p2846
VPrinceton Weekly 7
p2847
sVloser
p2848
g534
sa(dp2849
Vwinner
p2850
g522
sVevent
p2851
VJersey Japes 1
p2852
sVloser
p2853
VChristian
p2854
sag538
a(dp2855
Vwinner
p2856
g522
sVevent
p2857
VJersey Japes 1
p2858
sVloser
p2859
VPlank
p2860
sasg32
(lp2861
g2330
ag2821
a(dp2862
Vwinner
p2863
VPlank
p2864
sVevent
p2865
VJersey Japes 1
p2866
sVloser
p2867
g522
sassg2811
(dp2868
g3
(lp2869
g637
a(dp2870
Vwinner
p2871
VChristian
p2872
sVevent
p2873
VJersey Japes 1
p2874
sVloser
p2875
VAJ
p2876
sasg32
(lp2877
g2806
ag853
ag2471
a(dp2878
Vwinner
p2879
VKosa
p2880
sVevent
p2881
VPrinceton Weekly 8
p2882
sVloser
p2883
VChristian
p2884
sag2849
ag2524
assg131
(dp2885
g3
(lp2886
g1707
a(dp2887
Vwinner
p2888
g131
sVevent
p2889
VPrinceton Weekly 1
p2890
sVloser
p2891
VKosa
p2892
sag2246
ag129
ag2190
asg32
(lp2893
g1796
ag1614
ag813
ag1183
ag2081
a(dp2894
Vwinner
p2895
VKosa
p2896
sVevent
p2897
VPrinceton Weekly 5
p2898
sVloser
p2899
g131
sag2477
ag2354
assg456
(dp2900
g3
(lp2901
g1045
ag644
asg32
(lp2902
g2561
ag2731
a(dp2903
Vwinner
p2904
g534
sVevent
p2905
VPrinceton Weekly 8
p2906
sVloser
p2907
g456
sag451
assg1795
(dp2908
g3
(lp2909
sg32
(lp2910
g1790
ag2740
assg161
(dp2911
g3
(lp2912
g159
ag2537
ag1133
ag489
ag1139
ag1939
ag1859
a(dp2913
Vwinner
p2914
g161
sVevent
p2915
VPrinceton Weekly 5
p2916
sVloser
p2917
g1528
sag2109
asg32
(lp2918
g2768
ag2773
a(dp2919
Vwinner
p2920
g534
sVevent
p2921
VPrinceton Weekly 4
p2922
sVloser
p2923
g161
sag967
ag2797
ag972
assg2186
(dp2924
g3
(lp2925
g2184
ag2493
ag2828
ag2835
ag2404
ag2499
ag2862
asg32
(lp2926
g2855
assg2133
(dp2927
g3
(lp2928
sg32
(lp2929
g2128
ag1767
assg1397
(dp2930
g3
(lp2931
g1395
ag2694
ag1848
asg32
(lp2932
g2438
ag2778
assg2005
(dp2933
g3
(lp2934
sg32
(lp2935
g2000
ag1661
ag1403
ag1720
ag2870
ag1243
assg1215
(dp2936
g3
(lp2937
g2278
asg32
(lp2938
g1210
ag2620
assg2080
(dp2939
g3
(lp2940
g2568
ag2633
asg32
(lp2941
g2075
ag1898
assg1983
(dp2942
g3
(lp2943
g1981
ag2688
ag1126
ag328
ag2054
ag2157
ag2719
asg32
(lp2944
g2416
ag372
ag1818
ag1905
assg701
(dp2945
g3
(lp2946
g2678
asg32
(lp2947
g696
ag1529
assg2597
(dp2948
g3
(lp2949
g2595
ag2314
ag2298
ag1346
ag242
ag2222
ag913
ag254
ag2254
ag2646
a(dp2950
Vwinner
p2951
VKosa
p2952
sVevent
p2953
VPrinceton Weekly 5
p2954
sVloser
p2955
g1528
sag2168
ag2894
ag2585
ag2751
ag1781
ag1050
ag2878
asg32
(lp2956
g2887
ag1579
ag1087
ag2603
ag1807
ag412
ag2705
ag1824
ag690
ag2449
ag2512
ag1912
ag713
ag2518
assg1528
(dp2957
g3
(lp2958
sg32
(lp2959
g1885
ag1522
ag2950
ag2913
assg534
(dp2960
g3
(lp2961
g2640
ag2713
ag2919
ag1003
ag1775
ag2548
ag2373
ag2903
ag1163
ag532
asg32
(lp2962
g2784
ag2789
ag2466
ag2844
ag563
ag2348
ass.