(dp0
Vmkolpnji
p1
(dp2
S'wins'
p3
(lp4
ccopy_reg
_reconstructor
p5
(c__main__
Match
p6
c__builtin__
tuple
p7
(g1
VColonel
p8
VPrinceton Weekly 1
p9
tp10
tp11
Rp12
ag5
(g6
g7
(g1
VJustin Wong
p13
g9
tp14
tp15
Rp16
ag5
(g6
g7
(g1
VFranjoe
p17
VPrinceton Weekly 2
p18
tp19
tp20
Rp21
ag5
(g6
g7
(g1
VWatson
p22
g18
tp23
tp24
Rp25
ag5
(g6
g7
(g1
VMr. Clean
p26
VPrinceton Weekly 4
p27
tp28
tp29
Rp30
ag5
(g6
g7
(g1
VJake From State Farm
p31
g27
tp32
tp33
Rp34
ag5
(g6
g7
(g1
VTheftz
p35
g27
tp36
tp37
Rp38
asS'losses'
p39
(lp40
g5
(g6
g7
(VOverflow
p41
g1
g9
tp42
tp43
Rp44
ag5
(g6
g7
(VDestructicon
p45
g1
g9
tp46
tp47
Rp48
ag5
(g6
g7
(VKosa
p49
g1
g18
tp50
tp51
Rp52
ag5
(g6
g7
(g41
g1
g18
tp53
tp54
Rp55
ag5
(g6
g7
(VCF
p56
g1
VPrinceton Weekly 3
p57
tp58
tp59
Rp60
ag5
(g6
g7
(VYTG
p61
g1
g57
tp62
tp63
Rp64
ag5
(g6
g7
(VIcer
p65
g1
g27
tp66
tp67
Rp68
ag5
(g6
g7
(g41
g1
g27
tp69
tp70
Rp71
assVDougie Fresh
p72
(dp73
g3
(lp74
sg39
(lp75
g5
(g6
g7
(VMGFC I Dekunut
p76
g72
g57
tp77
tp78
Rp79
ag5
(g6
g7
(VBlank Dots
p80
VDougie Fresh
p81
g57
tp82
tp83
Rp84
assVDesai
p85
(dp86
g3
(lp87
sg39
(lp88
g5
(g6
g7
(g49
g85
g18
tp89
tp90
Rp91
ag5
(g6
g7
(VFranjoe
p92
VDesai
p93
g18
tp94
tp95
Rp96
assg8
(dp97
g3
(lp98
sg39
(lp99
g12
ag5
(g6
g7
(VEmanon
p100
VColonel
p101
g9
tp102
tp103
Rp104
assVThatPrincetonWeekliesGuy
p105
(dp106
g3
(lp107
g5
(g6
g7
(VThatPrincetonWeekliesGuy
p108
VJack
p109
g9
tp110
tp111
Rp112
asg39
(lp113
g5
(g6
g7
(VKmac
p114
g105
g9
tp115
tp116
Rp117
ag5
(g6
g7
(VPyro
p118
VThatPrincetonWeekliesGuy
p119
g9
tp120
tp121
Rp122
assVTS I Lord Knight
p123
(dp124
g3
(lp125
g5
(g6
g7
(g123
VZealous
p126
g57
tp127
tp128
Rp129
ag5
(g6
g7
(VTS I Lord Knight
p130
VNJzFinest
p131
g57
tp132
tp133
Rp134
asg39
(lp135
g5
(g6
g7
(VDaybreak
p136
VTS I Lord Knight
p137
g57
tp138
tp139
Rp140
ag5
(g6
g7
(VEnV
p141
VTS I Lord Knight
p142
g57
tp143
tp144
Rp145
assVBlank Dots
p146
(dp147
g3
(lp148
g84
asg39
(lp149
g5
(g6
g7
(VADVANCED
p150
g146
g57
tp151
tp152
Rp153
ag5
(g6
g7
(VCall Me Mars
p154
VBlank Dots
p155
g57
tp156
tp157
Rp158
assg65
(dp159
g3
(lp160
g5
(g6
g7
(g65
VPyro
p161
g9
tp162
tp163
Rp164
ag5
(g6
g7
(g65
VNJzFinest
p165
g9
tp166
tp167
Rp168
ag5
(g6
g7
(g65
g41
g9
tp169
tp170
Rp171
ag5
(g6
g7
(g65
g31
g18
tp172
tp173
Rp174
ag5
(g6
g7
(g65
VBigFoig
p175
g18
tp176
tp177
Rp178
ag5
(g6
g7
(g65
VNJzFinest
p179
g18
tp180
tp181
Rp182
ag5
(g6
g7
(g65
VSmelly Cat
p183
g18
tp184
tp185
Rp186
ag5
(g6
g7
(g65
g183
g18
tp187
tp188
Rp189
ag5
(g6
g7
(g65
VKofi
p190
g57
tp191
tp192
Rp193
ag5
(g6
g7
(g65
g41
g57
tp194
tp195
Rp196
ag5
(g6
g7
(g65
VNJzFinest
p197
g57
tp198
tp199
Rp200
ag5
(g6
g7
(g65
VMGFC I Dekunut
p201
g57
tp202
tp203
Rp204
ag5
(g6
g7
(g65
g141
g57
tp205
tp206
Rp207
ag5
(g6
g7
(g65
VDaybreak
p208
g57
tp209
tp210
Rp211
ag68
ag5
(g6
g7
(g65
VTweek
p212
g27
tp213
tp214
Rp215
ag5
(g6
g7
(g65
VDaybreak
p216
g27
tp217
tp218
Rp219
ag5
(g6
g7
(g65
VAlex The God
p220
g27
tp221
tp222
Rp223
ag5
(g6
g7
(g65
VAlex The God
p224
g27
tp225
tp226
Rp227
asg39
(lp228
g5
(g6
g7
(VC!Z
p229
g65
g9
tp230
tp231
Rp232
ag5
(g6
g7
(VSon2
p233
g65
g9
tp234
tp235
Rp236
ag5
(g6
g7
(VDaybreak
p237
g65
g57
tp238
tp239
Rp240
ag5
(g6
g7
(g229
g65
g57
tp241
tp242
Rp243
assVJavier
p244
(dp245
g3
(lp246
g5
(g6
g7
(g244
g126
g18
tp247
tp248
Rp249
ag5
(g6
g7
(VJavier
p250
VI like rice
p251
g18
tp252
tp253
Rp254
ag5
(g6
g7
(VJavier
p255
VKofi
p256
g18
tp257
tp258
Rp259
ag5
(g6
g7
(VJavier
p260
g49
g18
tp261
tp262
Rp263
ag5
(g6
g7
(VJavier
p264
g35
g18
tp265
tp266
Rp267
asg39
(lp268
g5
(g6
g7
(VDaybreak
p269
VJavier
p270
g18
tp271
tp272
Rp273
ag5
(g6
g7
(VNJzFinest
p274
VJavier
p275
g18
tp276
tp277
Rp278
assg175
(dp279
g3
(lp280
g5
(g6
g7
(g175
VCF
p281
g18
tp282
tp283
Rp284
ag5
(g6
g7
(g175
g61
g18
tp285
tp286
Rp287
ag5
(g6
g7
(g175
VFable
p288
VPrinceton Weekly 5
p289
tp290
tp291
Rp292
ag5
(g6
g7
(g175
g183
g289
tp293
tp294
Rp295
ag5
(g6
g7
(g175
VPCwiz
p296
g289
tp297
tp298
Rp299
asg39
(lp300
g5
(g6
g7
(VPyro
p301
g175
g9
tp302
tp303
Rp304
ag5
(g6
g7
(VKmac
p305
g175
g9
tp306
tp307
Rp308
ag178
ag5
(g6
g7
(VTweek
p309
g175
g18
tp310
tp311
Rp312
ag5
(g6
g7
(VNJzFinest
p313
g175
g289
tp314
tp315
Rp316
ag5
(g6
g7
(g229
g175
g289
tp317
tp318
Rp319
assVJahn
p320
(dp321
g3
(lp322
g5
(g6
g7
(VJahn
p323
VScrandino
p324
g9
tp325
tp326
Rp327
asg39
(lp328
g5
(g6
g7
(g61
g320
g9
tp329
tp330
Rp331
ag5
(g6
g7
(g49
VJahn
p332
g9
tp333
tp334
Rp335
assVPCwiz
p336
(dp337
g3
(lp338
g5
(g6
g7
(g336
Vchris
p339
g289
tp340
tp341
Rp342
ag5
(g6
g7
(VPCwiz
p343
g31
g289
tp344
tp345
Rp346
ag5
(g6
g7
(VPCwiz
p347
VYCJ
p348
g289
tp349
tp350
Rp351
asg39
(lp352
g5
(g6
g7
(VDaybreak
p353
VPCwiz
p354
g289
tp355
tp356
Rp357
ag299
assVMars
p358
(dp359
g3
(lp360
g5
(g6
g7
(VMars
p361
VScott
p362
g57
tp363
tp364
Rp365
asg39
(lp366
g5
(g6
g7
(VTweek
p367
g358
g57
tp368
tp369
Rp370
ag5
(g6
g7
(g126
VMars
p371
g57
tp372
tp373
Rp374
assVScrandino
p375
(dp376
g3
(lp377
sg39
(lp378
g5
(g6
g7
(VNJzFinest
p379
g375
g9
tp380
tp381
Rp382
ag327
ag5
(g6
g7
(VDudeacockus
p383
VScrandino
p384
g27
tp385
tp386
Rp387
ag5
(g6
g7
(g31
VScrandino
p388
g27
tp389
tp390
Rp391
assg17
(dp392
g3
(lp393
g96
asg39
(lp394
g21
ag5
(g6
g7
(g31
VFranjoe
p395
g18
tp396
tp397
Rp398
assVArias
p399
(dp400
g3
(lp401
g5
(g6
g7
(g399
VI like rice
p402
g18
tp403
tp404
Rp405
asg39
(lp406
g5
(g6
g7
(g183
VArias
p407
g18
tp408
tp409
Rp410
ag5
(g6
g7
(g126
VArias
p411
g18
tp412
tp413
Rp414
assVZodiac
p415
(dp416
g3
(lp417
g5
(g6
g7
(g415
g126
g9
tp418
tp419
Rp420
ag5
(g6
g7
(VZodiac
p421
g150
g9
tp422
tp423
Rp424
ag5
(g6
g7
(VZodiac
p425
VEmanon
p426
g9
tp427
tp428
Rp429
ag5
(g6
g7
(VZodiac
p430
VDan
p431
g27
tp432
tp433
Rp434
ag5
(g6
g7
(VZodiac
p435
VTeam
p436
g27
tp437
tp438
Rp439
ag5
(g6
g7
(VZodiac
p440
VFable
p441
g27
tp442
tp443
Rp444
ag5
(g6
g7
(VZodiac
p445
VDudeacockus
p446
g27
tp447
tp448
Rp449
asg39
(lp450
g5
(g6
g7
(g229
VZodiac
p451
g9
tp452
tp453
Rp454
ag5
(g6
g7
(VNJzFinest
p455
VZodiac
p456
g9
tp457
tp458
Rp459
ag5
(g6
g7
(g141
VZodiac
p460
g27
tp461
tp462
Rp463
ag5
(g6
g7
(g41
VZodiac
p464
g27
tp465
tp466
Rp467
assg126
(dp468
g3
(lp469
g414
ag5
(g6
g7
(g126
VMr. Clean
p470
g57
tp471
tp472
Rp473
ag374
ag5
(g6
g7
(g126
g61
g57
tp474
tp475
Rp476
asg39
(lp477
g420
ag5
(g6
g7
(VDestructicon
p478
g126
g9
tp479
tp480
Rp481
ag249
ag5
(g6
g7
(VTweek
p482
g126
g18
tp483
tp484
Rp485
ag129
ag5
(g6
g7
(g141
g126
g57
tp486
tp487
Rp488
assg229
(dp489
g3
(lp490
g454
ag5
(g6
g7
(g229
g35
g9
tp491
tp492
Rp493
ag5
(g6
g7
(g229
g141
g9
tp494
tp495
Rp496
ag232
ag5
(g6
g7
(g229
VSon2
p497
g9
tp498
tp499
Rp500
ag5
(g6
g7
(g229
VCF
p501
g57
tp502
tp503
Rp504
ag5
(g6
g7
(g229
VTweek
p505
g57
tp506
tp507
Rp508
ag5
(g6
g7
(g229
VMGFC I Dekunut
p509
g57
tp510
tp511
Rp512
ag5
(g6
g7
(g229
VDaybreak
p513
g57
tp514
tp515
Rp516
ag243
ag5
(g6
g7
(g229
VHimes
p517
g289
tp518
tp519
Rp520
ag5
(g6
g7
(g229
VGreen Lantern
p521
g289
tp522
tp523
Rp524
ag5
(g6
g7
(g229
VGreen Lantern
p525
g289
tp526
tp527
Rp528
ag5
(g6
g7
(g229
g49
g289
tp529
tp530
Rp531
ag319
ag5
(g6
g7
(g229
g141
g289
tp532
tp533
Rp534
ag5
(g6
g7
(g229
VNJzFinest
p535
g289
tp536
tp537
Rp538
ag5
(g6
g7
(g229
VTweek
p539
g289
tp540
tp541
Rp542
asg39
(lp543
g5
(g6
g7
(VTweek
p544
g229
g289
tp545
tp546
Rp547
assg31
(dp548
g3
(lp549
g5
(g6
g7
(g31
VWatson
p550
g18
tp551
tp552
Rp553
ag398
ag391
asg39
(lp554
g174
ag5
(g6
g7
(g61
g31
g18
tp555
tp556
Rp557
ag5
(g6
g7
(g49
g31
g27
tp558
tp559
Rp560
ag34
ag5
(g6
g7
(VHimes
p561
g31
g289
tp562
tp563
Rp564
ag346
assg35
(dp565
g3
(lp566
g5
(g6
g7
(g35
VVenz
p567
g9
tp568
tp569
Rp570
ag5
(g6
g7
(g35
VEmanon
p571
g9
tp572
tp573
Rp574
ag5
(g6
g7
(g35
VLink?
p575
g18
tp576
tp577
Rp578
ag5
(g6
g7
(g35
VTweek
p579
g18
tp580
tp581
Rp582
ag5
(g6
g7
(g35
g61
g18
tp583
tp584
Rp585
ag5
(g6
g7
(g35
VWatson
p586
g27
tp587
tp588
Rp589
ag5
(g6
g7
(g35
g150
g27
tp590
tp591
Rp592
ag5
(g6
g7
(g35
VYCJ
p593
g289
tp594
tp595
Rp596
ag5
(g6
g7
(g35
VWatson
p597
g289
tp598
tp599
Rp600
ag5
(g6
g7
(g35
VHimes
p601
g289
tp602
tp603
Rp604
ag5
(g6
g7
(g35
g154
g289
tp605
tp606
Rp607
ag5
(g6
g7
(g35
VDaybreak
p608
g289
tp609
tp610
Rp611
asg39
(lp612
g493
ag5
(g6
g7
(VPyro
p613
g35
g9
tp614
tp615
Rp616
ag5
(g6
g7
(g183
g35
g18
tp617
tp618
Rp619
ag267
ag5
(g6
g7
(VTweek
p620
g35
g27
tp621
tp622
Rp623
ag38
ag5
(g6
g7
(VTweek
p624
g35
g289
tp625
tp626
Rp627
ag5
(g6
g7
(VNJzFinest
p628
g35
g289
tp629
tp630
Rp631
assVImmersion
p632
(dp633
g3
(lp634
sg39
(lp635
g5
(g6
g7
(VNJzFinest
p636
g632
g57
tp637
tp638
Rp639
ag5
(g6
g7
(VPeanutphobia
p640
VImmersion
p641
g57
tp642
tp643
Rp644
assVDestructicon
p645
(dp646
g3
(lp647
g5
(g6
g7
(g645
g150
g9
tp648
tp649
Rp650
ag481
ag48
ag5
(g6
g7
(VDestructicon
p651
VNation
p652
g9
tp653
tp654
Rp655
ag5
(g6
g7
(VDestructicon
p656
VPyro
p657
g9
tp658
tp659
Rp660
asg39
(lp661
g5
(g6
g7
(VSon2
p662
VDestructicon
p663
g9
tp664
tp665
Rp666
ag5
(g6
g7
(g41
VDestructicon
p667
g9
tp668
tp669
Rp670
assg431
(dp671
g3
(lp672
sg39
(lp673
g434
ag5
(g6
g7
(VEmanon
p674
VDan
p675
g27
tp676
tp677
Rp678
assg561
(dp679
g3
(lp680
g564
ag5
(g6
g7
(VHimes
p681
Vchris
p682
g289
tp683
tp684
Rp685
asg39
(lp686
g520
ag604
assVBDukes
p687
(dp688
g3
(lp689
sg39
(lp690
g5
(g6
g7
(g141
g687
g57
tp691
tp692
Rp693
ag5
(g6
g7
(VMechaPikachu
p694
VBDukes
p695
g57
tp696
tp697
Rp698
assVSon2
p699
(dp700
g3
(lp701
g5
(g6
g7
(g699
V8
p702
g9
tp703
tp704
Rp705
ag666
ag5
(g6
g7
(VSon2
p706
VKmac
p707
g9
tp708
tp709
Rp710
ag5
(g6
g7
(VSon2
p711
VNJzFinest
p712
g9
tp713
tp714
Rp715
ag5
(g6
g7
(VSon2
p716
g141
g9
tp717
tp718
Rp719
ag5
(g6
g7
(VSon2
p720
g41
g9
tp721
tp722
Rp723
ag236
asg39
(lp724
g5
(g6
g7
(g41
VSon2
p725
g9
tp726
tp727
Rp728
ag500
assg652
(dp729
g3
(lp730
g5
(g6
g7
(g652
VSomar
p731
g9
tp732
tp733
Rp734
ag5
(g6
g7
(g652
g49
g9
tp735
tp736
Rp737
ag5
(g6
g7
(g652
VLink?
p738
g289
tp739
tp740
Rp741
asg39
(lp742
g5
(g6
g7
(g141
g652
g9
tp743
tp744
Rp745
ag655
ag5
(g6
g7
(VKofi
p746
g652
g18
tp747
tp748
Rp749
ag5
(g6
g7
(VTweek
p750
g652
g18
tp751
tp752
Rp753
ag5
(g6
g7
(g61
g652
g289
tp754
tp755
Rp756
ag5
(g6
g7
(g49
g652
g289
tp757
tp758
Rp759
assVEazy DI
p760
(dp761
g3
(lp762
sg39
(lp763
g5
(g6
g7
(VFlip
p764
g760
g27
tp765
tp766
Rp767
ag5
(g6
g7
(g154
VEazy DI
p768
g27
tp769
tp770
Rp771
assg379
(dp772
g3
(lp773
g382
ag5
(g6
g7
(VNJzFinest
p774
g61
g9
tp775
tp776
Rp777
ag459
ag5
(g6
g7
(VNJzFinest
p778
VKofi
p779
g18
tp780
tp781
Rp782
ag5
(g6
g7
(VNJzFinest
p783
VDaybreak
p784
g18
tp785
tp786
Rp787
ag278
ag5
(g6
g7
(VNJzFinest
p788
VEmanon
p789
g18
tp790
tp791
Rp792
ag639
ag5
(g6
g7
(VNJzFinest
p793
g61
g57
tp794
tp795
Rp796
ag5
(g6
g7
(VNJzFinest
p797
g49
g57
tp798
tp799
Rp800
ag5
(g6
g7
(VNJzFinest
p801
g61
g289
tp802
tp803
Rp804
ag316
ag631
asg39
(lp805
g168
ag715
ag182
ag5
(g6
g7
(g183
VNJzFinest
p806
g18
tp807
tp808
Rp809
ag134
ag200
ag5
(g6
g7
(VTweek
p810
VNJzFinest
p811
g289
tp812
tp813
Rp814
ag538
assg731
(dp815
g3
(lp816
g5
(g6
g7
(VSomar
p817
VKevin Liu
p818
g9
tp819
tp820
Rp821
asg39
(lp822
g734
ag5
(g6
g7
(g61
VSomar
p823
g9
tp824
tp825
Rp826
assVJack
p827
(dp828
g3
(lp829
sg39
(lp830
g5
(g6
g7
(g141
g827
g9
tp831
tp832
Rp833
ag112
assg141
(dp834
g3
(lp835
g833
ag5
(g6
g7
(g141
VKmac
p836
g9
tp837
tp838
Rp839
ag745
ag693
ag5
(g6
g7
(g141
g49
g57
tp840
tp841
Rp842
ag488
ag5
(g6
g7
(g141
g154
g57
tp843
tp844
Rp845
ag145
ag463
ag5
(g6
g7
(g141
g49
g27
tp846
tp847
Rp848
ag5
(g6
g7
(g141
VEmanon
p849
g27
tp850
tp851
Rp852
ag5
(g6
g7
(g141
VLink?
p853
g289
tp854
tp855
Rp856
ag5
(g6
g7
(g141
g154
g289
tp857
tp858
Rp859
asg39
(lp860
g496
ag719
ag5
(g6
g7
(VMGFC I Dekunut
p861
g141
g57
tp862
tp863
Rp864
ag207
ag5
(g6
g7
(VDaybreak
p865
g141
g27
tp866
tp867
Rp868
ag5
(g6
g7
(g183
g141
g27
tp869
tp870
Rp871
ag5
(g6
g7
(VGreen Lantern
p872
g141
g289
tp873
tp874
Rp875
ag534
assg183
(dp876
g3
(lp877
g410
ag619
ag5
(g6
g7
(g183
VEmanon
p878
g18
tp879
tp880
Rp881
ag809
ag5
(g6
g7
(g183
VEmanon
p882
g27
tp883
tp884
Rp885
ag5
(g6
g7
(g183
g41
g27
tp886
tp887
Rp888
ag871
ag5
(g6
g7
(g183
VScott
p889
g289
tp890
tp891
Rp892
ag5
(g6
g7
(g183
g61
g289
tp893
tp894
Rp895
asg39
(lp896
g186
ag189
ag5
(g6
g7
(VAlex The God
p897
g183
g27
tp898
tp899
Rp900
ag5
(g6
g7
(VDaybreak
p901
g183
g27
tp902
tp903
Rp904
ag295
ag5
(g6
g7
(VDaybreak
p905
g183
g289
tp906
tp907
Rp908
assg702
(dp909
g3
(lp910
sg39
(lp911
g705
ag5
(g6
g7
(g150
V8
p912
g9
tp913
tp914
Rp915
ag5
(g6
g7
(g61
V8
p916
g18
tp917
tp918
Rp919
ag5
(g6
g7
(VCF
p920
V8
p921
g18
tp922
tp923
Rp924
assg402
(dp925
g3
(lp926
sg39
(lp927
g405
ag254
assg567
(dp928
g3
(lp929
sg39
(lp930
g570
ag5
(g6
g7
(VJustin Wong
p931
VVenz
p932
g9
tp933
tp934
Rp935
assg154
(dp936
g3
(lp937
g5
(g6
g7
(g154
VAzy
p938
g57
tp939
tp940
Rp941
ag158
ag5
(g6
g7
(g154
VKofi
p942
g57
tp943
tp944
Rp945
ag5
(g6
g7
(g154
VTweek
p946
g57
tp947
tp948
Rp949
ag5
(g6
g7
(g154
VFable
p950
g27
tp951
tp952
Rp953
ag771
ag5
(g6
g7
(g154
g49
g289
tp954
tp955
Rp956
asg39
(lp957
g5
(g6
g7
(VDaybreak
p958
g154
g57
tp959
tp960
Rp961
ag845
ag5
(g6
g7
(g41
g154
g27
tp962
tp963
Rp964
ag5
(g6
g7
(VEmanon
p965
g154
g27
tp966
tp967
Rp968
ag859
ag607
assVKevin Liu
p969
(dp970
g3
(lp971
sg39
(lp972
g5
(g6
g7
(g49
g969
g9
tp973
tp974
Rp975
ag821
assVCypher
p976
(dp977
g3
(lp978
sg39
(lp979
g5
(g6
g7
(VTweek
p980
g976
g289
tp981
tp982
Rp983
ag5
(g6
g7
(VYCJ
p984
VCypher
p985
g289
tp986
tp987
Rp988
assVJustin Wong
p989
(dp990
g3
(lp991
g935
asg39
(lp992
g5
(g6
g7
(VEmanon
p993
g989
g9
tp994
tp995
Rp996
ag16
assg76
(dp997
g3
(lp998
g79
ag5
(g6
g7
(VMGFC I Dekunut
p999
g150
g57
tp1000
tp1001
Rp1002
ag864
asg39
(lp1003
g512
ag204
assg746
(dp1004
g3
(lp1005
g749
ag5
(g6
g7
(VKofi
p1006
VN2XX I Prison Mike
p1007
g18
tp1008
tp1009
Rp1010
ag5
(g6
g7
(VKofi
p1011
VOPC
p1012
g57
tp1013
tp1014
Rp1015
ag5
(g6
g7
(VKofi
p1016
VMechaPikachu
p1017
g57
tp1018
tp1019
Rp1020
asg39
(lp1021
g782
ag259
ag193
ag945
assVOPC
p1022
(dp1023
g3
(lp1024
sg39
(lp1025
g5
(g6
g7
(VEmanon
p1026
g1022
g18
tp1027
tp1028
Rp1029
ag5
(g6
g7
(g61
VOPC
p1030
g18
tp1031
tp1032
Rp1033
ag1015
ag5
(g6
g7
(g49
VOPC
p1034
g57
tp1035
tp1036
Rp1037
assg281
(dp1038
g3
(lp1039
g924
ag60
ag5
(g6
g7
(VCF
p1040
g150
g27
tp1041
tp1042
Rp1043
ag5
(g6
g7
(VCF
p1044
VGun
p1045
g27
tp1046
tp1047
Rp1048
asg39
(lp1049
g284
ag5
(g6
g7
(g41
VCF
p1050
g18
tp1051
tp1052
Rp1053
ag504
ag5
(g6
g7
(VPeanutphobia
p1054
VCF
p1055
g57
tp1056
tp1057
Rp1058
ag5
(g6
g7
(VAlex The God
p1059
VCF
p1060
g27
tp1061
tp1062
Rp1063
ag5
(g6
g7
(g49
VCF
p1064
g27
tp1065
tp1066
Rp1067
assg764
(dp1068
g3
(lp1069
g767
asg39
(lp1070
g5
(g6
g7
(VDaybreak
p1071
VFlip
p1072
g27
tp1073
tp1074
Rp1075
ag5
(g6
g7
(VFable
p1076
VFlip
p1077
g27
tp1078
tp1079
Rp1080
assg301
(dp1081
g3
(lp1082
g304
ag122
ag5
(g6
g7
(VPyro
p1083
g61
g9
tp1084
tp1085
Rp1086
ag616
asg39
(lp1087
g164
ag660
assg938
(dp1088
g3
(lp1089
g5
(g6
g7
(VAzy
p1090
VFable
p1091
g57
tp1092
tp1093
Rp1094
ag5
(g6
g7
(VAzy
p1095
g150
g57
tp1096
tp1097
Rp1098
asg39
(lp1099
g941
ag5
(g6
g7
(g49
VAzy
p1100
g57
tp1101
tp1102
Rp1103
assVPeanutphobia
p1104
(dp1105
g3
(lp1106
g644
ag1058
asg39
(lp1107
g5
(g6
g7
(g61
g1104
g57
tp1108
tp1109
Rp1110
ag5
(g6
g7
(g41
VPeanutphobia
p1111
g57
tp1112
tp1113
Rp1114
assVGun
p1115
(dp1116
g3
(lp1117
g5
(g6
g7
(VGun
p1118
VWatson
p1119
g27
tp1120
tp1121
Rp1122
asg39
(lp1123
g5
(g6
g7
(VTweek
p1124
g1115
g27
tp1125
tp1126
Rp1127
ag1048
assVTeam
p1128
(dp1129
g3
(lp1130
sg39
(lp1131
g5
(g6
g7
(VEmanon
p1132
g1128
g27
tp1133
tp1134
Rp1135
ag439
assg339
(dp1136
g3
(lp1137
sg39
(lp1138
g342
ag685
assg61
(dp1139
g3
(lp1140
g331
ag826
ag919
ag1033
ag557
ag1110
ag64
ag756
ag5
(g6
g7
(g61
VTongue
p1141
g289
tp1142
tp1143
Rp1144
asg39
(lp1145
g777
ag1086
ag287
ag585
ag796
ag476
ag804
ag895
assVTongue
p1146
(dp1147
g3
(lp1148
sg39
(lp1149
g5
(g6
g7
(VLink?
p1150
g1146
g289
tp1151
tp1152
Rp1153
ag1144
assVTweek
p1154
(dp1155
g3
(lp1156
g5
(g6
g7
(g1154
VN2XX I Prison Mike
p1157
g18
tp1158
tp1159
Rp1160
ag753
ag485
ag312
ag5
(g6
g7
(VTweek
p1161
VDaybreak
p1162
g18
tp1163
tp1164
Rp1165
ag370
ag5
(g6
g7
(VTweek
p1166
g41
g57
tp1167
tp1168
Rp1169
ag1127
ag623
ag983
ag627
ag547
ag814
asg39
(lp1170
g582
ag5
(g6
g7
(VEmanon
p1171
VTweek
p1172
g18
tp1173
tp1174
Rp1175
ag508
ag949
ag215
ag5
(g6
g7
(VEmanon
p1176
VTweek
p1177
g27
tp1178
tp1179
Rp1180
ag5
(g6
g7
(VGreen Lantern
p1181
VTweek
p1182
g289
tp1183
tp1184
Rp1185
ag542
assg41
(dp1186
g3
(lp1187
g44
ag728
ag670
ag1053
ag55
ag5
(g6
g7
(g41
VScott
p1188
g57
tp1189
tp1190
Rp1191
ag5
(g6
g7
(g41
VMr. Clean
p1192
g57
tp1193
tp1194
Rp1195
ag1114
ag5
(g6
g7
(g41
VUltimateRaven
p1196
g27
tp1197
tp1198
Rp1199
ag964
ag71
ag467
asg39
(lp1200
g171
ag723
ag5
(g6
g7
(VEmanon
p1201
g41
g18
tp1202
tp1203
Rp1204
ag5
(g6
g7
(VDaybreak
p1205
g41
g18
tp1206
tp1207
Rp1208
ag1169
ag196
ag888
ag5
(g6
g7
(VDaybreak
p1209
g41
g27
tp1210
tp1211
Rp1212
assg150
(dp1213
g3
(lp1214
g915
ag153
asg39
(lp1215
g650
ag424
ag1002
ag1098
ag1043
ag592
assg550
(dp1216
g3
(lp1217
sg39
(lp1218
g553
ag25
ag589
ag1122
ag5
(g6
g7
(VTalrane
p1219
VWatson
p1220
g289
tp1221
tp1222
Rp1223
ag600
assg1219
(dp1224
g3
(lp1225
g1223
asg39
(lp1226
g5
(g6
g7
(VGreen Lantern
p1227
VTalrane
p1228
g289
tp1229
tp1230
Rp1231
ag5
(g6
g7
(VYCJ
p1232
VTalrane
p1233
g289
tp1234
tp1235
Rp1236
assg1196
(dp1237
g3
(lp1238
sg39
(lp1239
g1199
ag5
(g6
g7
(VFable
p1240
VUltimateRaven
p1241
g27
tp1242
tp1243
Rp1244
assg383
(dp1245
g3
(lp1246
g387
ag5
(g6
g7
(VDudeacockus
p1247
g49
g27
tp1248
tp1249
Rp1250
asg39
(lp1251
g5
(g6
g7
(VAlex The God
p1252
VDudeacockus
p1253
g27
tp1254
tp1255
Rp1256
ag449
assg269
(dp1257
g3
(lp1258
g273
ag1208
ag5
(g6
g7
(VDaybreak
p1259
VFable
p1260
g57
tp1261
tp1262
Rp1263
ag961
ag240
ag140
ag1075
ag868
ag1212
ag904
ag357
ag908
asg39
(lp1264
g787
ag1165
ag516
ag211
ag219
ag5
(g6
g7
(VAlex The God
p1265
VDaybreak
p1266
g27
tp1267
tp1268
Rp1269
ag5
(g6
g7
(VGreen Lantern
p1270
VDaybreak
p1271
g289
tp1272
tp1273
Rp1274
ag611
assg593
(dp1275
g3
(lp1276
g988
ag1236
asg39
(lp1277
g596
ag351
assg1227
(dp1278
g3
(lp1279
g1231
ag1274
ag875
ag1185
asg39
(lp1280
g524
ag528
assg49
(dp1281
g3
(lp1282
g975
ag335
ag91
ag52
ag5
(g6
g7
(g49
VMechaPikachu
p1283
g57
tp1284
tp1285
Rp1286
ag1037
ag1103
ag560
ag5
(g6
g7
(g49
VMr. Clean
p1287
g27
tp1288
tp1289
Rp1290
ag1067
ag5
(g6
g7
(g49
VScott
p1291
g289
tp1292
tp1293
Rp1294
ag5
(g6
g7
(g49
VFable
p1295
g289
tp1296
tp1297
Rp1298
ag759
asg39
(lp1299
g737
ag5
(g6
g7
(VKmac
p1300
g49
g9
tp1301
tp1302
Rp1303
ag5
(g6
g7
(VEmanon
p1304
g49
g18
tp1305
tp1306
Rp1307
ag263
ag842
ag800
ag1250
ag848
ag956
ag531
assg1283
(dp1308
g3
(lp1309
g698
asg39
(lp1310
g1286
ag1020
assg114
(dp1311
g3
(lp1312
g117
ag308
ag1303
asg39
(lp1313
g839
ag710
assg993
(dp1314
g3
(lp1315
g996
ag104
ag1029
ag1204
ag1307
ag1175
ag1135
ag678
ag968
ag1180
asg39
(lp1316
g574
ag429
ag881
ag792
ag885
ag852
assg1188
(dp1317
g3
(lp1318
sg39
(lp1319
g1191
ag365
ag1294
ag892
assg1157
(dp1320
g3
(lp1321
g5
(g6
g7
(VN2XX I Prison Mike
p1322
VLink?
p1323
g18
tp1324
tp1325
Rp1326
asg39
(lp1327
g1160
ag1010
assg1260
(dp1328
g3
(lp1329
g1244
ag1080
asg39
(lp1330
g1263
ag1094
ag953
ag444
ag292
ag1298
assg470
(dp1331
g3
(lp1332
sg39
(lp1333
g473
ag1195
ag30
ag1290
assg575
(dp1334
g3
(lp1335
g1153
asg39
(lp1336
g578
ag1326
ag856
ag741
assg1059
(dp1337
g3
(lp1338
g1063
ag1256
ag900
ag1269
asg39
(lp1339
g223
ag227
ass.